(lp0
I4429
aI10082
aI4262
aI1171
aI1317
aI2874
aI2491
aI4398
aI7090
aI6576
aI6662
aI7292
aI5918
aI9265
aI2551
aI2085
aI2101
aI10208
aI6938
aI5923
aI7956
aI8908
aI8925
aI7606
aI4589
aI10101
aI8076
aI3259
aI6444
aI438
aI7456
aI402
aI5507
aI9313
aI6277
aI2609
aI9416
aI2102
aI8379
aI7859
aI8708
aI6375
aI9716
aI4862
aI318
aI6857
aI883
aI2544
aI8185
aI1684
aI2714
aI2177
aI3701
aI2927
aI1266
aI7851
aI4895
aI5285
aI2662
aI9061
aI10187
aI6647
aI10155
aI7085
aI5358
aI639
aI8002
aI7126
aI8836
aI7140
aI9446
aI5675
aI4255
aI2285
aI1742
aI1665
aI5349
aI1713
aI3583
aI4954
aI6972
aI5273
aI369
aI3430
aI3486
aI1750
aI6516
aI5131
aI9646
aI7800
aI799
aI3820
aI9662
aI1427
aI6527
aI5537
aI5375
aI10084
aI133
aI8714
aI3184
aI3567
aI4851
aI1736
aI2975
aI3949
aI655
aI2227
aI2061
aI3260
aI862
aI2847
aI7248
aI2950
aI2478
aI3338
aI3677
aI8300
aI5574
aI9184
aI2454
aI3314
aI6379
aI7363
aI9595
aI3876
aI5930
aI3472
aI1342
aI4648
aI8215
aI5442
aI2453
aI10121
aI4977
aI7243
aI9424
aI6913
aI5772
aI6898
aI7519
aI4463
aI2786
aI2978
aI3232
aI9827
aI9452
aI5137
aI5627
aI9231
aI8075
aI1380
aI9799
aI218
aI7773
aI4980
aI8209
aI4327
aI8818
aI836
aI5713
aI4174
aI5485
aI833
aI917
aI7787
aI7750
aI2
aI4416
aI3082
aI5154
aI9408
aI5317
aI4228
aI4721
aI5369
aI4522
aI638
aI2321
aI6945
aI5404
aI5865
aI7195
aI7565
aI8406
aI5860
aI1783
aI1365
aI9020
aI1123
aI951
aI7640
aI4959
aI5658
aI736
aI357
aI2599
aI5340
aI561
aI2044
aI7453
aI5219
aI7107
aI3040
aI9681
aI8339
aI6919
aI9210
aI6053
aI5766
aI6486
aI4443
aI1511
aI5374
aI4054
aI2909
aI7224
aI4736
aI1886
aI3573
aI7247
aI7893
aI4556
aI8356
aI8132
aI3618
aI1356
aI6879
aI5528
aI6446
aI5475
aI7639
aI9382
aI4083
aI5902
aI299
aI4720
aI10067
aI6534
aI7836
aI3341
aI4679
aI9342
aI8354
aI2200
aI6962
aI4554
aI5241
aI3481
aI1870
aI4176
aI10092
aI3147
aI7735
aI2262
aI3406
aI8288
aI3837
aI5889
aI7740
aI6741
aI8786
aI3562
aI380
aI6939
aI3089
aI3178
aI4871
aI4209
aI6498
aI6838
aI333
aI7722
aI6208
aI5220
aI4290
aI5015
aI2986
aI2855
aI8981
aI1998
aI7339
aI455
aI283
aI4378
aI2870
aI3645
aI8741
aI6095
aI3088
aI10181
aI2711
aI758
aI3784
aI3415
aI9079
aI3719
aI1889
aI5042
aI8702
aI6423
aI3112
aI8218
aI3446
aI6312
aI4042
aI1325
aI3810
aI7416
aI8029
aI9967
aI6492
aI3864
aI7127
aI9378
aI9664
aI4090
aI563
aI663
aI4025
aI3342
aI4819
aI9006
aI353
aI8374
aI4649
aI5111
aI4273
aI2672
aI8535
aI3219
aI8591
aI6176
aI1477
aI9283
aI5793
aI6445
aI7411
aI4798
aI9940
aI7785
aI3268
aI7611
aI12
aI8142
aI3001
aI8544
aI3937
aI4231
aI8238
aI9375
aI7570
aI508
aI9792
aI6847
aI9728
aI7900
aI1169
aI5396
aI1445
aI1491
aI9963
aI8756
aI3800
aI6963
aI7057
aI6512
aI9864
aI8412
aI4785
aI8232
aI3273
aI7602
aI7536
aI3636
aI4465
aI5611
aI9500
aI2589
aI4858
aI7746
aI8452
aI980
aI781
aI7714
aI8438
aI3531
aI5933
aI8014
aI5719
aI3385
aI8737
aI8704
aI8088
aI1759
aI2677
aI3327
aI2633
aI7798
aI5813
aI3751
aI3847
aI899
aI3253
aI6696
aI2622
aI2715
aI590
aI1990
aI2558
aI4303
aI5045
aI7954
aI10162
aI1303
aI8151
aI2374
aI2332
aI1247
aI4537
aI2854
aI8222
aI10163
aI263
aI3433
aI8634
aI9045
aI4999
aI6171
aI1694
aI3667
aI8802
aI6014
aI4615
aI5727
aI1093
aI2323
aI10198
aI422
aI9847
aI9765
aI10066
aI768
aI1443
aI5764
aI7769
aI7157
aI8028
aI4813
aI9397
aI7178
aI2997
aI4480
aI9266
aI6964
aI4757
aI6869
aI3066
aI6861
aI2775
aI7765
aI328
aI8343
aI9059
aI586
aI3871
aI6738
aI2861
aI9669
aI9034
aI173
aI7601
aI4039
aI4624
aI5951
aI1981
aI8121
aI4286
aI6593
aI4745
aI1299
aI7115
aI5083
aI4912
aI2368
aI4775
aI4511
aI10167
aI273
aI2203
aI3659
aI9745
aI4909
aI4733
aI3074
aI738
aI757
aI332
aI4353
aI7294
aI3774
aI7645
aI5966
aI5510
aI9843
aI8260
aI7666
aI8120
aI1687
aI7955
aI7146
aI4409
aI8521
aI9959
aI8710
aI4183
aI9296
aI8389
aI8465
aI5944
aI5143
aI5868
aI3316
aI6297
aI397
aI9379
aI4426
aI5984
aI4945
aI1280
aI8115
aI1113
aI3043
aI628
aI5493
aI3666
aI1237
aI5035
aI1097
aI7641
aI7921
aI1192
aI7160
aI1078
aI2999
aI8537
aI8208
aI9168
aI9706
aI2793
aI2263
aI9235
aI4338
aI10180
aI4707
aI1384
aI368
aI6638
aI9301
aI5195
aI2412
aI2631
aI6617
aI9484
aI5135
aI206
aI6870
aI3961
aI2179
aI2146
aI6066
aI2863
aI6047
aI7508
aI2675
aI3712
aI1539
aI4492
aI8571
aI1669
aI2107
aI329
aI3104
aI6570
aI6649
aI2012
aI7366
aI6103
aI9523
aI5879
aI6384
aI2670
aI2074
aI9636
aI9201
aI8619
aI3899
aI625
aI4127
aI8979
aI9472
aI7831
aI4172
aI374
aI3608
aI6045
aI4140
aI347
aI8168
aI2892
aI3545
aI2380
aI2754
aI6283
aI235
aI3298
aI7864
aI5762
aI6910
aI2028
aI699
aI8865
aI10044
aI9298
aI7550
aI5440
aI6449
aI2462
aI2935
aI8281
aI9084
aI8812
aI3395
aI8573
aI440
aI2479
aI7736
aI8312
aI5206
aI3417
aI5276
aI400
aI2859
aI4965
aI629
aI8398
aI8848
aI6200
aI7319
aI5823
aI780
aI2561
aI490
aI2709
aI5328
aI6490
aI7687
aI7679
aI9704
aI2068
aI9840
aI1403
aI4623
aI4233
aI6802
aI5833
aI1422
aI3465
aI886
aI6572
aI8961
aI9534
aI6819
aI1456
aI2756
aI7784
aI10036
aI6194
aI9904
aI8494
aI8713
aI6259
aI5400
aI1001
aI9506
aI9336
aI693
aI7503
aI9841
aI10135
aI2484
aI6248
aI75
aI2097
aI2114
aI9836
aI2054
aI7973
aI2691
aI2172
aI9867
aI5659
aI3490
aI9621
aI4802
aI9734
aI6848
aI9351
aI527
aI9651
aI7326
aI7338
aI5134
aI9275
aI2117
aI3746
aI4700
aI7928
aI3748
aI5768
aI4357
aI3441
aI670
aI9981
aI667
aI6412
aI8976
aI2630
aI6843
aI7690
aI2845
aI3054
aI2995
aI751
aI8694
aI10026
aI7185
aI2680
aI4943
aI5648
aI566
aI7169
aI3119
aI5275
aI4017
aI5545
aI6251
aI8645
aI2849
aI2747
aI2531
aI968
aI4284
aI7477
aI9405
aI9872
aI6187
aI5778
aI9883
aI7052
aI6293
aI8911
aI4485
aI7549
aI6549
aI6284
aI9514
aI5551
aI1609
aI4765
aI7579
aI6347
aI6400
aI7114
aI10081
aI3010
aI4975
aI5779
aI6266
aI9804
aI3869
aI2421
aI8183
aI8604
aI6130
aI9946
aI6574
aI4593
aI1982
aI7747
aI1481
aI5582
aI5020
aI6877
aI1877
aI6150
aI7096
aI4839
aI2472
aI6733
aI6622
aI4748
aI3653
aI2022
aI7993
aI6928
aI8716
aI9417
aI7223
aI1971
aI1088
aI8620
aI9011
aI6006
aI4906
aI6542
aI9337
aI3250
aI967
aI3978
aI6764
aI5759
aI870
aI7467
aI8744
aI2183
aI3266
aI7862
aI7447
aI1314
aI3647
aI3816
aI4963
aI5227
aI7165
aI6002
aI4968
aI9531
aI6107
aI6292
aI7870
aI2296
aI8433
aI7473
aI4826
aI6634
aI6844
aI7779
aI9854
aI5989
aI3890
aI4868
aI4647
aI903
aI8794
aI631
aI8607
aI6814
aI4296
aI5729
aI9131
aI5103
aI4486
aI5430
aI1054
aI9037
aI1575
aI4196
aI8516
aI6878
aI2219
aI7924
aI3243
aI5555
aI5204
aI2110
aI10206
aI1205
aI6451
aI2349
aI9413
aI8340
aI4772
aI3179
aI1330
aI2036
aI8845
aI695
aI3697
aI2370
aI8129
aI78
aI4321
aI822
aI949
aI1179
aI9197
aI1660
aI1730
aI1861
aI6199
aI3371
aI4690
aI1499
aI7461
aI3624
aI7316
aI3292
aI454
aI6927
aI4126
aI9688
aI1358
aI4055
aI5960
aI3799
aI6138
aI4818
aI1884
aI3469
aI3566
aI2790
aI8583
aI9777
aI7796
aI5179
aI7731
aI1283
aI8999
aI9972
aI4633
aI9778
aI6407
aI4518
aI2856
aI72
aI6406
aI3048
aI8941
aI4694
aI5570
aI62
aI3739
aI5731
aI8190
aI9136
aI4828
aI8039
aI5670
aI538
aI7409
aI7689
aI9419
aI8055
aI1785
aI1350
aI6040
aI5676
aI8738
aI9628
aI5862
aI3322
aI8226
aI531
aI3180
aI488
aI4101
aI2489
aI6205
aI7939
aI2895
aI809
aI9331
aI6023
aI7991
aI9601
aI4905
aI4563
aI3468
aI7703
aI3403
aI2964
aI1530
aI5812
aI5376
aI1555
aI8173
aI8402
aI3878
aI646
aI3767
aI7162
aI6320
aI8322
aI4731
aI5950
aI6849
aI8555
aI2525
aI7407
aI6116
aI1460
aI9483
aI3920
aI5867
aI3924
aI7288
aI4709
aI9368
aI4411
aI1790
aI6494
aI2266
aI7865
aI2914
aI9686
aI8821
aI1708
aI10063
aI6392
aI9887
aI6875
aI2694
aI8237
aI9371
aI6583
aI2899
aI8212
aI2359
aI6162
aI9893
aI4244
aI7434
aI1923
aI2340
aI264
aI7768
aI388
aI5602
aI7726
aI3340
aI2878
aI4245
aI1836
aI9291
aI6880
aI5732
aI7333
aI1421
aI6263
aI6035
aI2956
aI6067
aI7885
aI4653
aI8868
aI6303
aI4997
aI3003
aI7886
aI3161
aI6715
aI4496
aI9786
aI6447
aI6049
aI10119
aI534
aI9925
aI1149
aI6948
aI4257
aI3453
aI961
aI9671
aI2726
aI4754
aI3443
aI1372
aI9784
aI1658
aI315
aI3942
aI5472
aI5725
aI1633
aI6983
aI2593
aI3466
aI5692
aI7705
aI6966
aI9096
aI3838
aI4223
aI2272
aI5314
aI6091
aI1338
aI9464
aI5534
aI7781
aI5408
aI7252
aI9286
aI2082
aI4086
aI1388
aI6657
aI9973
aI1189
aI10086
aI9795
aI5808
aI4728
aI9015
aI1643
aI9848
aI1672
aI7479
aI954
aI7421
aI3631
aI344
aI7280
aI1116
aI1731
aI4907
aI2397
aI301
aI4845
aI5669
aI3318
aI2886
aI2989
aI7391
aI5834
aI70
aI7913
aI3353
aI51
aI2768
aI6893
aI1072
aI2514
aI2450
aI1176
aI3557
aI735
aI9758
aI5993
aI1760
aI9077
aI1385
aI5631
aI9495
aI4803
aI1993
aI3334
aI1437
aI4487
aI4603
aI396
aI9654
aI4292
aI8353
aI9053
aI1472
aI6012
aI3380
aI6772
aI2498
aI6343
aI6556
aI1970
aI176
aI8205
aI3408
aI8746
aI2280
aI5022
aI5128
aI6117
aI3911
aI1921
aI506
aI9192
aI5073
aI4925
aI9930
aI6488
aI9188
aI3120
aI3611
aI5708
aI1126
aI4362
aI9270
aI6104
aI1849
aI1219
aI9289
aI9644
aI6872
aI9204
aI5894
aI9012
aI6425
aI2702
aI10051
aI8834
aI3605
aI865
aI9837
aI518
aI2725
aI1987
aI3303
aI8326
aI3687
aI4890
aI5742
aI9033
aI930
aI3989
aI4445
aI6453
aI7427
aI7981
aI6338
aI6111
aI3658
aI217
aI9684
aI5153
aI611
aI6139
aI8719
aI4625
aI7883
aI6852
aI6646
aI9489
aI423
aI5115
aI9384
aI2362
aI5059
aI5735
aI7980
aI7986
aI6366
aI2174
aI8525
aI6201
aI5810
aI2762
aI3240
aI3597
aI5767
aI790
aI7729
aI6731
aI10062
aI1988
aI5458
aI6122
aI5852
aI7274
aI8599
aI5630
aI3326
aI10172
aI604
aI2245
aI2543
aI1170
aI7887
aI8016
aI6866
aI2780
aI5620
aI8019
aI5567
aI6766
aI7334
aI4804
aI6243
aI4887
aI462
aI10055
aI9151
aI2657
aI3282
aI9879
aI5413
aI1196
aI6123
aI1291
aI1480
aI4139
aI2734
aI1667
aI7261
aI3786
aI9834
aI2375
aI4074
aI9529
aI9150
aI10106
aI4566
aI5601
aI966
aI1932
aI130
aI1289
aI9389
aI6450
aI8617
aI1337
aI702
aI722
aI6191
aI5385
aI2464
aI7201
aI6956
aI5723
aI2644
aI4330
aI4043
aI5295
aI2243
aI7388
aI8568
aI2729
aI3907
aI8839
aI7937
aI8042
aI3668
aI9885
aI3011
aI8192
aI8529
aI3256
aI6221
aI6535
aI1276
aI230
aI5380
aI3313
aI4808
aI3428
aI5118
aI5795
aI984
aI7540
aI3209
aI4218
aI5587
aI6762
aI2066
aI7336
aI3325
aI5642
aI4213
aI7095
aI7816
aI1482
aI6846
aI3208
aI9465
aI3671
aI5417
aI2813
aI8582
aI8194
aI81
aI4261
aI6156
aI2504
aI8593
aI3947
aI3227
aI7794
aI6146
aI2386
aI8138
aI6500
aI1016
aI4311
aI10031
aI8898
aI6836
aI8169
aI4651
aI1279
aI9902
aI1363
aI6399
aI3661
aI5608
aI292
aI4354
aI7104
aI1880
aI6335
aI1721
aI5222
aI2384
aI1565
aI5388
aI5048
aI8584
aI6131
aI7039
aI5907
aI6825
aI7982
aI6368
aI9246
aI8405
aI4446
aI5240
aI7270
aI2953
aI5070
aI1614
aI1564
aI1133
aI7208
aI7142
aI5308
aI10148
aI7537
aI5125
aI2699
aI1788
aI7931
aI8677
aI1918
aI2605
aI8182
aI5589
aI6890
aI5811
aI2451
aI7450
aI2493
aI2166
aI3761
aI2842
aI5901
aI3095
aI6473
aI4823
aI7078
aI9039
aI2930
aI4686
aI2800
aI7210
aI1353
aI3335
aI9224
aI9238
aI8355
aI5626
aI2926
aI5021
aI5090
aI4202
aI2410
aI1313
aI8086
aI1215
aI2163
aI3544
aI4008
aI7896
aI246
aI8462
aI8840
aI59
aI7905
aI6973
aI7952
aI8404
aI9821
aI9508
aI3162
aI2960
aI322
aI6333
aI436
aI2313
aI7470
aI9403
aI7148
aI1619
aI5666
aI1629
aI3693
aI2003
aI168
aI2145
aI9658
aI7682
aI867
aI6531
aI2759
aI7440
aI189
aI9140
aI9407
aI7377
aI4693
aI10194
aI8250
aI6991
aI8135
aI4564
aI7024
aI2688
aI5641
aI8828
aI2547
aI2115
aI6936
aI7488
aI8804
aI40
aI7035
aI1542
aI548
aI1957
aI4224
aI3867
aI3474
aI4636
aI782
aI3764
aI2093
aI7634
aI6321
aI7417
aI5572
aI1845
aI4671
aI2884
aI3585
aI3598
aI4939
aI3992
aI8021
aI6783
aI159
aI2441
aI4253
aI4989
aI3508
aI9155
aI5529
aI553
aI9551
aI2062
aI4240
aI7001
aI48
aI9172
aI6604
aI6643
aI5612
aI593
aI4873
aI4154
aI8497
aI326
aI7853
aI6378
aI9102
aI6701
aI4169
aI8335
aI9509
aI3045
aI2708
aI4249
aI9892
aI977
aI8875
aI3479
aI10113
aI2387
aI3192
aI1049
aI6974
aI9594
aI3498
aI10202
aI3827
aI5213
aI425
aI6824
aI6821
aI6408
aI6245
aI5773
aI7003
aI4166
aI6474
aI9213
aI8308
aI7264
aI9871
aI5002
aI1366
aI6954
aI9132
aI5615
aI1484
aI8227
aI256
aI5506
aI3830
aI9964
aI1625
aI5752
aI2563
aI7383
aI4467
aI7295
aI456
aI5491
aI10212
aI9463
aI8053
aI9954
aI661
aI3279
aI2706
aI26
aI9586
aI9103
aI2799
aI2942
aI7734
aI4969
aI6132
aI3035
aI7219
aI5956
aI7215
aI1232
aI1913
aI9162
aI1524
aI3457
aI4917
aI8793
aI6778
aI839
aI981
aI7343
aI3262
aI3369
aI4381
aI6602
aI190
aI2663
aI7708
aI9122
aI8614
aI6874
aI10083
aI734
aI9516
aI9035
aI3962
aI4641
aI5012
aI9620
aI1903
aI1354
aI3143
aI3431
aI5724
aI767
aI9349
aI2111
aI5110
aI4114
aI2977
aI451
aI4665
aI6063
aI9448
aI2035
aI10077
aI3915
aI4314
aI7683
aI8149
aI1418
aI7382
aI129
aI2196
aI3175
aI6374
aI3523
aI5697
aI4151
aI1298
aI5239
aI3324
aI3344
aI4164
aI7907
aI367
aI2381
aI7820
aI7596
aI4771
aI4847
aI2875
aI4482
aI8093
aI7002
aI5446
aI5788
aI112
aI1376
aI7088
aI9702
aI5518
aI4116
aI6829
aI6461
aI4541
aI7030
aI3103
aI5998
aI10142
aI141
aI6925
aI300
aI7780
aI2299
aI1601
aI6569
aI6736
aI1442
aI7635
aI769
aI3826
aI5781
aI6603
aI5717
aI3419
aI2536
aI7282
aI3625
aI5197
aI6393
aI6409
aI1026
aI7394
aI2994
aI3383
aI6142
aI1989
aI8606
aI7438
aI1346
aI5088
aI2164
aI3549
aI7759
aI5129
aI922
aI9432
aI9647
aI296
aI8625
aI1157
aI4678
aI2735
aI7194
aI5628
aI950
aI9624
aI1452
aI2070
aI4713
aI810
aI3454
aI5366
aI6635
aI3517
aI2305
aI5409
aI9488
aI10094
aI2222
aI6326
aI3743
aI1155
aI1916
aI8592
aI3496
aI5086
aI7213
aI558
aI6795
aI250
aI9178
aI8768
aI165
aI7808
aI4063
aI297
aI3829
aI3865
aI8667
aI6771
aI9161
aI7048
aI8506
aI9894
aI9533
aI6608
aI9980
aI671
aI1399
aI5763
aI1817
aI9737
aI3633
aI3507
aI920
aI643
aI1008
aI2923
aI8187
aI1782
aI7521
aI155
aI4933
aI3013
aI5995
aI3203
aI308
aI5439
aI7019
aI2897
aI1138
aI8948
aI7082
aI9573
aI6410
aI1693
aI6247
aI1802
aI9612
aI3955
aI7867
aI302
aI5857
aI5509
aI6436
aI10019
aI1322
aI2701
aI7375
aI7522
aI2526
aI1258
aI8783
aI739
aI7055
aI3265
aI2655
aI7432
aI4077
aI700
aI4661
aI9935
aI6124
aI1267
aI3533
aI6417
aI9024
aI1985
aI814
aI7144
aI659
aI9308
aI5613
aI9013
aI9675
aI6158
aI5531
aI4078
aI3891
aI2848
aI8810
aI4795
aI4947
aI2207
aI748
aI8904
aI766
aI9273
aI4214
aI2743
aI4672
aI10089
aI7809
aI2230
aI7311
aI8937
aI7742
aI9272
aI8431
aI1286
aI6269
aI6594
aI1594
aI2404
aI279
aI8157
aI8064
aI4777
aI4266
aI4635
aI6553
aI2520
aI5280
aI4575
aI7170
aI3283
aI5817
aI7251
aI6547
aI6670
aI1221
aI7056
aI842
aI6644
aI2591
aI4696
aI5023
aI7422
aI9730
aI7563
aI6442
aI5606
aI2127
aI8988
aI2152
aI5057
aI2885
aI3073
aI3858
aI2529
aI4673
aI7236
aI9415
aI7344
aI1453
aI4812
aI9215
aI6068
aI7378
aI5796
aI666
aI3898
aI10009
aI660
aI92
aI1315
aI3595
aI6256
aI2635
aI9712
aI10034
aI3933
aI6301
aI5807
aI9717
aI2460
aI5832
aI8942
aI8066
aI8766
aI802
aI376
aI4972
aI5079
aI4732
aI3973
aI990
aI1638
aI7898
aI5054
aI3835
aI3964
aI6693
aI7826
aI3482
aI8728
aI2681
aI2901
aI8038
aI3553
aI5332
aI5313
aI478
aI632
aI7578
aI8455
aI2597
aI10068
aI5261
aI8244
aI8109
aI9561
aI313
aI8501
aI5081
aI1213
aI1076
aI681
aI1604
aI4714
aI8291
aI7695
aI1118
aI9819
aI4990
aI6768
aI2303
aI7541
aI9901
aI1496
aI9327
aI10154
aI4298
aI7187
aI8827
aI4481
aI1623
aI8388
aI2477
aI4380
aI7618
aI703
aI828
aI2325
aI1600
aI4542
aI7918
aI5297
aI5405
aI7212
aI9691
aI3868
aI99
aI4901
aI1316
aI98
aI2608
aI6876
aI4821
aI2862
aI6268
aI7725
aI1134
aI8150
aI42
aI6074
aI4117
aI9255
aI3765
aI8978
aI580
aI9798
aI6097
aI2774
aI5412
aI6641
aI5873
aI6562
aI6115
aI10196
aI8454
aI6605
aI9629
aI6165
aI2625
aI2388
aI1866
aI745
aI4629
aI3845
aI6186
aI6862
aI607
aI7433
aI813
aI8693
aI5619
aI337
aI8159
aI9491
aI618
aI9992
aI9945
aI8643
aI5968
aI909
aI7567
aI4141
aI8939
aI1936
aI2660
aI4050
aI1028
aI7818
aI8094
aI8581
aI10088
aI10205
aI2545
aI8545
aI3483
aI4064
aI123
aI8126
aI9288
aI9262
aI3524
aI4239
aI5271
aI3745
aI7684
aI2056
aI2202
aI247
aI4631
aI467
aI5016
aI9835
aI1269
aI484
aI2737
aI2248
aI5194
aI3683
aI1048
aI1410
aI160
aI7620
aI9249
aI6177
aI9216
aI3916
aI238
aI5761
aI2665
aI2519
aI9149
aI3052
aI3172
aI9797
aI7551
aI9722
aI2494
aI7520
aI1661
aI8991
aI2001
aI3475
aI9735
aI4436
aI5686
aI7200
aI6722
aI10161
aI4776
aI1304
aI8128
aI7276
aI6112
aI8816
aI854
aI10080
aI3302
aI495
aI9069
aI2679
aI1806
aI9435
aI9421
aI3330
aI577
aI9454
aI3131
aI8595
aI7647
aI7413
aI8930
aI4461
aI526
aI9983
aI8641
aI9949
aI443
aI6294
aI9632
aI5096
aI2275
aI5869
aI9402
aI4187
aI3512
aI1999
aI6968
aI7045
aI2919
aI7630
aI2210
aI2784
aI7892
aI2436
aI135
aI2541
aI7777
aI148
aI3181
aI4618
aI1025
aI3555
aI4869
aI319
aI7381
aI8284
aI3280
aI4371
aI3440
aI6673
aI4531
aI1571
aI5180
aI4299
aI7073
aI10045
aI4108
aI9545
aI6144
aI6435
aI673
aI947
aI3988
aI4544
aI1349
aI269
aI4606
aI5462
aI2466
aI5646
aI2592
aI9073
aI2353
aI7380
aI1558
aI2841
aI2095
aI4061
aI7081
aI2130
aI5269
aI9882
aI6325
aI8460
aI6645
aI2873
aI9321
aI2984
aI9816
aI2191
aI7054
aI8732
aI9383
aI5504
aI2432
aI733
aI4057
aI502
aI1055
aI1549
aI7050
aI2315
aI8882
aI9710
aI5511
aI9167
aI4715
aI4306
aI9997
aI8524
aI194
aI3991
aI2530
aI8797
aI1387
aI4505
aI2904
aI2120
aI6466
aI1430
aI4996
aI3607
aI1294
aI5469
aI1407
aI8420
aI6530
aI1859
aI6015
aI7677
aI3749
aI6071
aI7498
aI8134
aI9913
aI5535
aI2866
aI8375
aI5682
aI2929
aI3710
aI8395
aI8503
aI5945
aI7997
aI3315
aI10007
aI3115
aI503
aI5044
aI6815
aI197
aI461
aI9460
aI6463
aI1772
aI4447
aI2221
aI9906
aI4022
aI7760
aI2738
aI1829
aI1512
aI1983
aI8892
aI3197
aI8060
aI8872
aI2922
aI8562
aI63
aI6744
aI3346
aI8650
aI3366
aI6995
aI9357
aI10104
aI6820
aI5354
aI8638
aI4089
aI5468
aI10028
aI2809
aI3451
aI9237
aI8974
aI4834
aI5373
aI9056
aI1560
aI2659
aI8481
aI992
aI2256
aI6008
aI1191
aI2991
aI8603
aI1610
aI9763
aI7263
aI1716
aI2835
aI10109
aI1392
aI978
aI10122
aI5981
aI5835
aI1720
aI444
aI7500
aI5476
aI7007
aI6694
aI4491
aI458
aI1668
aI1518
aI10145
aI4916
aI5063
aI4712
aI877
aI7817
aI8877
aI5863
aI1883
aI10027
aI4193
aI1172
aI8923
aI9428
aI4857
aI7105
aI6027
aI4222
aI4003
aI7152
aI3364
aI3527
aI9609
aI3460
aI7092
aI5829
aI9578
aI4583
aI8813
aI3834
aI2661
aI9341
aI8674
aI7525
aI9549
aI9528
aI7543
aI5623
aI8893
aI5392
aI7121
aI8493
aI6573
aI1168
aI216
aI2527
aI5200
aI399
aI5736
aI3613
aI8909
aI5172
aI6210
aI5721
aI5939
aI4407
aI228
aI9431
aI5013
aI3438
aI9116
aI335
aI2766
aI7771
aI5384
aI7226
aI4946
aI8851
aI10103
aI188
aI3000
aI5667
aI3416
aI4543
aI1820
aI1292
aI8177
aI7038
aI9486
aI8613
aI9256
aI9157
aI8302
aI1142
aI2446
aI8511
aI9261
aI7670
aI1043
aI2506
aI6090
aI3716
aI3738
aI1714
aI3563
aI5871
aI1244
aI2469
aI3317
aI6699
aI2144
aI9756
aI3831
aI5443
aI3939
aI4121
aI4517
aI2341
aI6548
aI5210
aI4536
aI7485
aI2429
aI7998
aI6682
aI5786
aI1552
aI1038
aI1858
aI9185
aI1274
aI4024
aI6992
aI2687
aI1666
aI4167
aI6969
aI272
aI711
aI4725
aI8885
aI2770
aI8984
aI5167
aI5859
aI5840
aI10076
aI2018
aI6349
aI803
aI2502
aI321
aI4960
aI1096
aI1010
aI991
aI8907
aI2917
aI9547
aI2051
aI1042
aI3214
aI9259
aI7044
aI6776
aI1050
aI4807
aI5092
aI4918
aI3600
aI845
aI9352
aI3615
aI8750
aI7539
aI8510
aI9829
aI8655
aI2105
aI3487
aI8305
aI7548
aI1390
aI8718
aI6686
aI7168
aI7987
aI6654
aI3050
aI9406
aI7813
aI5585
aI2795
aI8867
aI8610
aI3007
aI8254
aI8822
aI1644
aI821
aI9650
aI1160
aI5259
aI1891
aI4877
aI1704
aI3592
aI5218
aI2109
aI9358
aI4014
aI6770
aI7132
aI6867
aI1139
aI9802
aI2696
aI5214
aI7265
aI8247
aI9220
aI6033
aI9076
aI3564
aI7758
aI5093
aI6231
aI10107
aI4811
aI1395
aI1818
aI3582
aI6930
aI9521
aI6357
aI2430
aI3024
aI3932
aI3802
aI7173
aI1961
aI4657
aI4761
aI3167
aI1285
aI9202
aI5540
aI1068
aI7911
aI3812
aI7626
aI9471
aI3976
aI5649
aI623
aI9770
aI3851
aI9437
aI10022
aI3994
aI4376
aI1856
aI5113
aI5005
aI9359
aI10018
aI7360
aI2116
aI7398
aI7923
aI1911
aI7566
aI7983
aI925
aI7949
aI6061
aI3561
aI8467
aI10177
aI5425
aI2123
aI7866
aI3801
aI7298
aI3506
aI897
aI7506
aI8383
aI2601
aI3217
aI7788
aI7706
aI3526
aI9652
aI9626
aI9146
aI404
aI8417
aI1140
aI1890
aI5854
aI1529
aI9846
aI4281
aI3075
aI3086
aI8624
aI1543
aI9429
aI956
aI6253
aI1828
aI8760
aI10064
aI6918
aI1655
aI8731
aI10015
aI4790
aI4479
aI6148
aI7124
aI405
aI482
aI5323
aI7448
aI2086
aI7111
aI4580
aI3158
aI596
aI4020
aI3900
aI5379
aI9497
aI1746
aI3056
aI4404
aI8434
aI6255
aI10012
aI9290
aI5371
aI4854
aI6729
aI6216
aI3670
aI7011
aI8382
aI8888
aI115
aI9590
aI3136
aI3511
aI1586
aI7163
aI6960
aI7484
aI4893
aI7455
aI6706
aI5291
aI8179
aI5158
aI3536
aI4270
aI5885
aI4424
aI7674
aI4168
aI2376
aI9685
aI1425
aI3814
aI8860
aI9825
aI9433
aI1309
aI5566
aI520
aI1944
aI1992
aI964
aI1193
aI2369
aI4539
aI3323
aI3135
aI5805
aI1711
aI7906
aI5884
aI1927
aI9179
aI8140
aI8296
aI715
aI1906
aI8231
aI1119
aI9282
aI575
aI5940
aI7675
aI2712
aI5398
aI1724
aI7940
aI1017
aI9109
aI9775
aI585
aI5032
aI106
aI9236
aI35
aI9974
aI3622
aI2277
aI723
aI3872
aI5037
aI1631
aI6810
aI8068
aI4158
aI4602
aI698
aI6398
aI1202
aI1649
aI3970
aI5108
aI4438
aI9257
aI7819
aI5538
aI9243
aI3278
aI6302
aI5184
aI9082
aI285
aI5792
aI554
aI6883
aI6304
aI6234
aI8767
aI3750
aI9477
aI234
aI7297
aI3306
aI760
aI807
aI90
aI7754
aI6330
aI3349
aI7342
aI927
aI4534
aI9966
aI2393
aI8676
aI2632
aI4190
aI8699
aI9623
aI8547
aI2818
aI7790
aI5864
aI1526
aI5356
aI166
aI3580
aI9098
aI2090
aI460
aI5085
aI1367
aI10042
aI1335
aI7667
aI4746
aI2331
aI4870
aI5282
aI9000
aI6026
aI6953
aI31
aI5963
aI4664
aI2456
aI7662
aI515
aI8725
aI2674
aI9458
aI4743
aI6929
aI9086
aI7203
aI9645
aI6510
aI1020
aI953
aI1087
aI137
aI3362
aI6582
aI3295
aI5816
aI9914
aI686
aI1556
aI6961
aI6539
aI1590
aI4427
aI10147
aI3679
aI2497
aI4767
aI9186
aI9170
aI2651
aI491
aI8570
aI8108
aI4976
aI1678
aI8618
aI1419
aI6286
aI6311
aI3762
aI6775
aI9281
aI6990
aI3100
aI7732
aI4392
aI499
aI1789
aI9353
aI779
aI912
aI1112
aI3463
aI2443
aI8429
aI8317
aI3187
aI6579
aI9441
aI4669
aI2713
aI1834
aI8720
aI9427
aI5650
aI1778
aI5202
aI4004
aI8181
aI2522
aI8320
aI603
aI8850
aI169
aI350
aI327
aI8769
aI5824
aI7041
aI817
aI7227
aI9443
aI5095
aI5466
aI8983
aI7423
aI8686
aI9542
aI4374
aI2091
aI559
aI1516
aI9234
aI4460
aI2887
aI4944
aI1265
aI8915
aI5324
aI3473
aI4162
aI6101
aI2832
aI938
aI549
aI476
aI9474
aI957
aI1700
aI2160
aI3329
aI2998
aI8241
aI6137
aI583
aI3840
aI6166
aI3137
aI251
aI6552
aI1144
aI3384
aI7315
aI9742
aI3424
aI1712
aI1939
aI2392
aI849
aI2858
aI32
aI6784
aI6250
aI3883
aI7406
aI1037
aI7053
aI7102
aI8125
aI8239
aI1064
aI7310
aI4545
aI3766
aI808
aI7744
aI4200
aI4494
aI1608
aI9998
aI1682
aI5954
aI2972
aI4782
aI1847
aI908
aI10209
aI4630
aI5826
aI2289
aI7889
aI3230
aI7305
aI2888
aI14
aI101
aI1075
aI9344
aI3953
aI3514
aI5621
aI3055
aI9347
aI7335
aI8294
aI6080
aI4684
aI6509
aI354
aI2136
aI6305
aI1573
aI1636
aI10118
aI2939
aI1726
aI9068
aI2065
aI4726
aI9345
aI22
aI1148
aI10150
aI8072
aI8970
aI3950
aI6916
aI6853
aI1044
aI8040
aI4572
aI5965
aI9899
aI9881
aI6958
aI3183
aI5014
aI1938
aI2828
aI1879
aI6344
aI7572
aI7935
aI6485
aI539
aI4066
aI8574
aI8608
aI2071
aI2703
aI202
aI9838
aI2666
aI1563
aI1506
aI823
aI8359
aI4328
aI1435
aI2537
aI5483
aI900
aI7080
aI8515
aI5104
aI9823
aI9181
aI8899
aI6167
aI504
aI2881
aI1284
aI6565
aI8647
aI8482
aI4835
aI9019
aI9861
aI1195
aI6623
aI1009
aI1131
aI6703
aI8171
aI5690
aI2063
aI132
aI5049
aI2607
aI8043
aI9227
aI9002
aI6732
aI6886
aI8518
aI9307
aI7673
aI5447
aI1004
aI2586
aI4654
aI4
aI4198
aI1905
aI5043
aI8145
aI5926
aI5072
aI5164
aI3705
aI8041
aI2295
aI4267
aI9233
aI4844
aI1098
aI4032
aI696
aI10041
aI6591
aI756
aI10024
aI3952
aI3044
aI8996
aI5419
aI9074
aI3370
aI3808
aI528
aI7795
aI8749
aI9268
aI7293
aI280
aI5972
aI3034
aI6353
aI3691
aI3980
aI7258
aI7317
aI1948
aI1245
aI10099
aI3804
aI622
aI10133
aI5991
aI5450
aI5850
aI2911
aI946
aI6940
aI5790
aI7034
aI8367
aI9438
aI1777
aI579
aI9707
aI401
aI1537
aI1100
aI9793
aI1163
aI811
aI6656
aI4317
aI7437
aI6560
aI7850
aI4643
aI1006
aI4815
aI1773
aI6051
aI7287
aI9280
aI9127
aI2910
aI7715
aI6688
aI3193
aI2755
aI1958
aI6322
aI5120
aI9211
aI9944
aI8036
aI5565
aI8790
aI9340
aI1875
aI556
aI6912
aI9369
aI5908
aI2837
aI8390
aI9886
aI5337
aI7530
aI2966
aI8290
aI6884
aI1951
aI7405
aI3707
aI9859
aI4072
aI67
aI5891
aI4007
aI143
aI7505
aI6520
aI266
aI10100
aI4519
aI1005
aI7449
aI7239
aI9845
aI1727
aI5453
aI5831
aI5208
aI7691
aI4013
aI1428
aI4282
aI5875
aI914
aI2912
aI4548
aI714
aI5321
aI6750
aI692
aI6932
aI8879
aI229
aI5010
aI5643
aI7848
aI9223
aI231
aI5644
aI6030
aI411
aI2584
aI4983
aI4753
aI5858
aI2162
aI7839
aI3740
aI221
aI1741
aI3981
aI1013
aI4783
aI4955
aI1409
aI1198
aI5785
aI9898
aI5605
aI4751
aI4773
aI7623
aI3616
aI5168
aI3132
aI5787
aI2952
aI4838
aI3368
aI6823
aI6471
aI5609
aI5523
aI6225
aI3414
aI6987
aI5849
aI3836
aI4779
aI2796
aI7701
aI8444
aI3706
aI8484
aI6949
aI1697
aI1946
aI9163
aI3794
aI2961
aI2658
aI7351
aI6790
aI3225
aI2270
aI2664
aI8823
aI6536
aI10096
aI3249
aI4454
aI8703
aI7804
aI5959
aI6599
aI6009
aI1449
aI3357
aI1605
aI7493
aI6951
aI8137
aI8831
aI7554
aI5803
aI2812
aI8576
aI9367
aI8678
aI906
aI6950
aI1758
aI9831
aI2053
aI3348
aI9938
aI6495
aI7277
aI8805
aI9300
aI3025
aI7650
aI3922
aI8514
aI3698
aI4137
aI8541
aI10049
aI2008
aI6911
aI525
aI3449
aI4502
aI6236
aI1135
aI7323
aI4986
aI8289
aI2151
aI2407
aI9866
aI3703
aI9305
aI6001
aI6864
aI1158
aI4210
aI1061
aI3101
aI726
aI7967
aI8880
aI93
aI1606
aI6182
aI4104
aI8633
aI2089
aI3630
aI8724
aI6633
aI8669
aI1811
aI3085
aI2627
aI6942
aI2918
aI8615
aI9442
aI1175
aI8033
aI4655
aI6707
aI3641
aI8313
aI1929
aI7914
aI3022
aI8883
aI2439
aI5406
aI4528
aI5745
aI1493
aI4220
aI8905
aI904
aI1567
aI921
aI8600
aI3521
aI3367
aI5480
aI5464
aI4254
aI8311
aI3777
aI8781
aI5798
aI6056
aI4699
aI2042
aI2426
aI1671
aI9001
aI1465
aI8385
aI5913
aI1738
aI5668
aI5124
aI5948
aI10050
aI4688
aI5316
aI431
aI480
aI437
aI905
aI7452
aI1826
aI773
aI901
aI9591
aI8110
aI609
aI110
aI6383
aI9889
aI1459
aI3853
aI1950
aI312
aI6854
aI5156
aI3725
aI9968
aI9018
aI5883
aI3655
aI352
aI1182
aI4695
aI9536
aI10146
aI6323
aI497
aI3242
aI5751
aI2613
aI7386
aI962
aI3238
aI5546
aI7512
aI2643
aI8824
aI8240
aI9494
aI4269
aI4405
aI4458
aI7846
aI9404
aI6192
aI3204
aI5513
aI4903
aI4789
aI710
aI645
aI8100
aI6062
aI1406
aI8008
aI2564
aI4170
aI5159
aI1241
aI4927
aI2820
aI3882
aI2250
aI10071
aI2278
aI795
aI1843
aI1125
aI7558
aI6639
aI142
aI1744
aI7238
aI4076
aI1677
aI3422
aI342
aI6730
aI1057
aI7325
aI6003
aI4448
aI1737
aI6523
aI880
aI7424
aI7209
aI8640
aI3389
aI4471
aI85
aI8143
aI6306
aI9917
aI6689
aI237
aI5853
aI3237
aI4998
aI5784
aI6747
aI6484
aI3309
aI3006
aI3152
aI1753
aI4138
aI7874
aI8096
aI6464
aI6609
aI6188
aI5903
aI1111
aI9927
aI1156
aI6329
aI7206
aI3159
aI7318
aI1675
aI4957
aI9779
aI4386
aI9937
aI4107
aI1208
aI8852
aI3623
aI8862
aI7180
aI1053
aI5497
aI4475
aI6386
aI4215
aI6957
aI9117
aI3532
aI1771
aI7245
aI3726
aI6102
aI2573
aI44
aI9941
aI1262
aI6507
aI9173
aI9226
aI8538
aI8426
aI9931
aI5985
aI3957
aI8357
aI2669
aI6013
aI7327
aI2534
aI8811
aI6143
aI7612
aI892
aI10020
aI9817
aI5074
aI543
aI5251
aI1463
aI3352
aI364
aI1466
aI9674
aI8902
aI10065
aI2500
aI2290
aI1874
aI7562
aI6479
aI3398
aI4769
aI4395
aI7486
aI2528
aI682
aI224
aI1611
aI6804
aI2646
aI2512
aI3571
aI4251
aI10132
aI3914
aI6411
aI3664
aI3471
aI2212
aI6727
aI7230
aI5053
aI1369
aI2653
aI9414
aI7392
aI198
aI9087
aI3548
aI2318
aI4685
aI5344
aI3951
aI9581
aI6760
aI439
aI4031
aI6431
aI1813
aI8887
aI5178
aI4159
aI2683
aI3140
aI2027
aI5126
aI6470
aI6382
aI1306
aI2817
aI6782
aI6235
aI5209
aI544
aI8117
aI536
aI5687
aI10152
aI8772
aI3360
aI8635
aI8917
aI3328
aI8413
aI1474
aI453
aI7979
aI6675
aI7332
aI9370
aI569
aI4863
aI8005
aI3083
aI9810
aI8443
aI943
aI5500
aI8552
aI10006
aI2057
aI1257
aI4574
aI1151
aI3844
aI7254
aI8451
aI9279
aI6119
aI6257
aI3020
aI2649
aI7518
aI574
aI9130
aI2783
aI403
aI5878
aI7770
aI5008
aI6698
aI7047
aI1347
aI3245
aI9398
aI483
aI9100
aI7917
aI1653
aI6472
aI3877
aI3936
aI9692
aI5399
aI2428
aI2606
aI8668
aI6457
aI5632
aI7621
aI102
aI3437
aI8361
aI516
aI4325
aI3196
aI8953
aI9633
aI1393
aI3849
aI1618
aI126
aI309
aI9653
aI1893
aI4512
aI7934
aI94
aI3116
aI2569
aI5242
aI4457
aI1431
aI6616
aI2336
aI3688
aI916
aI9253
aI6959
aI6575
aI2483
aI6432
aI1461
aI7412
aI7110
aI4557
aI4614
aI1167
aI105
aI7583
aI3263
aI7390
aI6697
aI6865
aI7559
aI9138
aI8992
aI2335
aI6970
aI9953
aI5947
aI9324
aI7752
aI1095
aI4343
aI3386
aI2171
aI6422
aI1146
aI33
aI10207
aI8884
aI3694
aI5983
aI7097
aI1011
aI4645
aI2255
aI8688
aI3805
aI2055
aI4356
aI1494
aI3379
aI6159
aI958
aI7581
aI8069
aI8363
aI8392
aI626
aI7087
aI9767
aI5142
aI3753
aI7499
aI7071
aI9897
aI9744
aI6677
aI2831
aI10157
aI8632
aI9615
aI6981
aI6317
aI3604
aI7106
aI7803
aI959
aI3381
aI6975
aI2147
aI8659
aI2154
aI9518
aI2513
aI4698
aI5505
aI3185
aI2233
aI4680
aI4134
aI5378
aI4793
aI1725
aI7040
aI1887
aI3612
aI787
aI7569
aI360
aI5329
aI9666
aI1077
aI9017
aI2217
aI889
aI9589
aI5802
aI9066
aI2486
aI6037
aI2067
aI6401
aI2126
aI572
aI6340
aI2634
aI8319
aI7507
aI463
aI9160
aI7322
aI4309
aI2488
aI3426
aI220
aI5187
aI4027
aI7403
aI8419
aI4948
aI2946
aI6313
aI9004
aI5949
aI2049
aI1588
aI8046
aI6087
aI7970
aI9312
aI498
aI3130
aI9228
aI5533
aI3069
aI5672
aI1014
aI3141
aI2445
aI8225
aI3359
aI732
aI2948
aI5705
aI4087
aI3742
aI5360
aI5818
aI1509
aI3539
aI1030
aI8692
aI8546
aI3515
aI3467
aI4791
aI9642
aI1391
aI8220
aI8972
aI2254
aI8597
aI9788
aI8139
aI3218
aI379
aI1878
aI2081
aI6724
aI4148
aI7778
aI5700
aI3921
aI5603
aI2808
aI10097
aI3730
aI8743
aI3985
aI7396
aI146
aI1800
aI5041
aI7014
aI3284
aI6800
aI5258
aI2286
aI10186
aI7345
aI7118
aI8739
aI3032
aI2827
aI5277
aI5604
aI6151
aI7379
aI8461
aI4058
aI3758
aI1083
aI9911
aI10046
aI565
aI5678
aI8782
aI8442
aI9097
aI351
aI4987
aI6648
aI2047
aI7651
aI8508
aI1287
aI9614
aI7871
aI664
aI3819
aI7856
aI1128
aI8077
aI9459
aI500
aI2769
aI1065
aI9731
aI2402
aI5421
aI7628
aI9597
aI2175
aI7478
aI2188
aI7757
aI8586
aI1500
aI7608
aI5639
aI6377
aI5365
aI7399
aI6799
aI5541
aI6742
aI8873
aI1978
aI8397
aI446
aI6019
aI4334
aI8697
aI5361
aI971
aI3194
aI8103
aI4320
aI3027
aI3037
aI9649
aI7430
aI7133
aI8280
aI7897
aI3575
aI1401
aI8424
aI3919
aI1584
aI9833
aI2921
aI1652
aI2979
aI5451
aI4295
aI3665
aI7495
aI5346
aI9225
aI2040
aI8394
aI8449
aI275
aI3269
aI7329
aI3946
aI7138
aI4569
aI6011
aI7912
aI116
aI4719
aI1320
aI1965
aI1548
aI2287
aI5876
aI4406
aI3288
aI858
aI3448
aI5052
aI9457
aI1855
aI6754
aI1833
aI8926
aI996
aI9678
aI6901
aI8696
aI7971
aI3429
aI9673
aI737
aI5882
aI68
aI6458
aI8931
aI7557
aI2307
aI9183
aI7514
aI8858
aI7348
aI5026
aI9493
aI7762
aI6324
aI7782
aI8895
aI4047
aI3505
aI5393
aI2427
aI3796
aI1986
aI4953
aI3142
aI9726
aI2949
aI7267
aI392
aI7603
aI6816
aI1850
aI3686
aI3626
aI4814
aI6282
aI5306
aI7353
aI3943
aI5568
aI3485
aI3286
aI5588
aI6982
aI2787
aI121
aI1485
aI6390
aI3669
aI5031
aI1174
aI4336
aI4861
aI1541
aI4236
aI1528
aI9934
aI82
aI9490
aI3999
aI1945
aI6497
aI381
aI595
aI10059
aI153
aI521
aI4331
aI8735
aI9932
aI9970
aI7919
aI5519
aI1424
aI619
aI1373
aI7607
aI8665
aI7164
aI6767
aI2103
aI6946
aI8425
aI3755
aI7222
aI2297
aI1764
aI6226
aI277
aI3029
aI25
aI3839
aI2668
aI4417
aI6178
aI2515
aI2823
aI5663
aI9535
aI8306
aI1532
aI8259
aI6624
aI7584
aI2637
aI489
aI9334
aI4264
aI5211
aI720
aI4418
aI8559
aI2031
aI9625
aI7183
aI7833
aI567
aI8993
aI2252
aI568
aI3918
aI9014
aI278
aI10184
aI4768
aI2294
aI4394
aI4464
aI241
aI7101
aI1513
aI9544
aI8334
aI3372
aI3995
aI2261
aI5338
aI658
aI10203
aI9884
aI1447
aI5936
aI3401
aI2776
aI1968
aI9294
aI2501
aI3516
aI1084
aI180
aI7891
aI4866
aI9348
aI8044
aI2170
aI9391
aI5363
aI3579
aI5671
aI9986
aI9991
aI2857
aI7561
aI8629
aI5943
aI5539
aI2741
aI3929
aI4962
aI2079
aI8114
aI7147
aI2304
aI2959
aI1624
aI8370
aI6791
aI8776
aI935
aI5078
aI8977
aI2971
aI3695
aI7233
aI1331
aI9738
aI8457
aI17
aI5257
aI3825
aI8027
aI9376
aI4399
aI8564
aI2448
aI1853
aI4551
aI627
aI9306
aI8350
aI3782
aI5089
aI6075
aI2673
aI7330
aI2765
aI5558
aI2955
aI2139
aI6197
aI10200
aI5892
aI5526
aI434
aI6044
aI2334
aI5290
aI8365
aI2347
aI8833
aI3862
aI1807
aI3210
aI5782
aI9455
aI5287
aI3016
aI9559
aI6888
aI1343
aI3642
aI270
aI8112
aI6891
aI8966
aI848
aI9803
aI3732
aI6218
aI8934
aI5780
aI9244
aI1166
aI3397
aI772
aI5553
aI2496
aI2249
aI1022
aI505
aI6655
aI8360
aI1582
aI5247
aI5522
aI6532
aI9052
aI7139
aI6705
aI5532
aI7474
aI282
aI8351
aI826
aI10033
aI9070
aI5436
aI8276
aI1273
aI5426
aI1121
aI4136
aI2239
aI9198
aI6258
aI8787
aI5391
aI4938
aI6840
aI7594
aI6072
aI10144
aI9481
aI1972
aI5716
aI9951
aI6416
aI214
aI8777
aI4741
aI1943
aI2570
aI1282
aI2650
aI6046
aI2624
aI997
aI4326
aI4855
aI8975
aI162
aI10143
aI9555
aI5595
aI794
aI60
aI8949
aI2150
aI9574
aI1152
aI818
aI5289
aI286
aI9092
aI9054
aI5737
aI9145
aI7553
aI7556
aI5791
aI1490
aI2652
aI6391
aI8556
aI955
aI8955
aI2471
aI7182
aI1835
aI441
aI6069
aI10199
aI3182
aI9560
aI4272
aI1898
aI1591
aI2532
aI8437
aI3307
aI2228
aI7502
aI4219
aI5185
aI64
aI894
aI10158
aI6351
aI9016
aI382
aI8456
aI825
aI3499
aI5909
aI3663
aI53
aI5661
aI6571
aI9640
aI6088
aI8523
aI6508
aI3931
aI7526
aI5806
aI2628
aI9354
aI6038
aI5234
aI6133
aI2087
aI3098
aI5924
aI7716
aI8031
aI1090
aI7320
aI7065
aI3062
aI4084
aI4230
aI3331
aI6841
aI9996
aI9743
aI3081
aI3586
aI3997
aI1607
aI9339
aI6621
aI6774
aI8943
aI979
aI8463
aI4897
aI9869
aI7799
aI8962
aI7151
aI207
aI10165
aI717
aI6100
aI3096
aI7020
aI7631
aI9008
aI4668
aI8814
aI3455
aI8346
aI944
aI4184
aI348
aI8853
aI7084
aI8539
aI10030
aI3377
aI447
aI9696
aI2970
aI9156
aI3723
aI8035
aI3133
aI2811
aI5101
aI1909
aI9060
aI6125
aI10188
aI7513
aI2577
aI7730
aI9865
aI5770
aI2938
aI7086
aI5709
aI993
aI9969
aI7648
aI9607
aI10079
aI1825
aI5974
aI6443
aI6057
aI9610
aI1000
aI8236
aI898
aI10095
aI3190
aI3938
aI2739
aI4110
aI1786
aI5229
aI8742
aI1505
aI6683
aI3852
aI58
aI9285
aI6424
aI2785
aI3293
aI7049
aI3447
aI10127
aI7190
aI4865
aI2540
aI7207
aI9152
aI5946
aI763
aI7131
aI893
aI2590
aI8495
aI4389
aI7837
aI10193
aI7663
aI7741
aI8418
aI998
aI2415
aI8548
aI73
aI5976
aI6753
aI3094
aI4053
aI6298
aI6060
aI6149
aI5743
aI1066
aI5056
aI10116
aI8476
aI6584
aI2574
aI5525
aI2197
aI5728
aI5221
aI265
aI1302
aI4902
aI8712
aI6855
aI7093
aI1074
aI413
aI3272
aI2361
aI599
aI6348
aI1685
aI5415
aI267
aI7783
aI9302
aI122
aI2438
aI9565
aI2560
aI4872
aI10128
aI3893
aI6018
aI2194
aI2985
aI36
aI4974
aI7589
aI2257
aI7008
aI1779
aI4584
aI4970
aI6402
aI3291
aI9105
aI8654
aI9515
aI7592
aI1628
aI3675
aI2987
aI2684
aI1924
aI5147
aI6761
aI6454
aI2967
aI5794
aI3734
aI4133
aI7694
aI3685
aI4120
aI8386
aI9043
aI38
aI2742
aI1995
aI4546
aI7743
aI7595
aI856
aI8154
aI2549
aI7588
aI5333
aI9604
aI3248
aI6418
aI1405
aI7463
aI5266
aI2140
aI1831
aI7733
aI7058
aI3700
aI8012
aI6881
aI7580
aI39
aI9672
aI6902
aI5599
aI742
aI5155
aI10048
aI4227
aI8623
aI5018
aI3944
aI5146
aI3336
aI1681
aI2758
aI6426
aI9195
aI1137
aI1822
aI5756
aI6085
aI1659
aI7535
aI5665
aI1242
aI9022
aI4704
aI5114
aI2165
aI2076
aI8672
aI2697
aI1751
aI3188
aI4082
aI20
aI5958
aI3412
aI2236
aI1483
aI3186
aI2565
aI8165
aI5999
aI6109
aI4440
aI4809
aI9470
aI9466
aI519
aI5739
aI8219
aI8198
aI1450
aI9596
aI1108
aI5364
aI3373
aI8997
aI2418
aI2265
aI9749
aI6681
aI4594
aI5283
aI1523
aI9501
aI4488
aI7469
aI4507
aI2860
aI7116
aI9909
aI4347
aI5173
aI6206
aI5470
aI2168
aI4358
aI3106
aI2505
aI4095
aI2274
aI9372
aI7123
aI10151
aI5992
aI4044
aI10075
aI2941
aI4509
aI7012
aI9388
aI8611
aI3155
aI4930
aI4506
aI3909
aI8057
aI6278
aI3388
aI5622
aI6615
aI9469
aI2727
aI816
aI7487
aI244
aI5524
aI3632
aI1089
aI4705
aI2867
aI3146
aI4810
aI4102
aI5520
aI2366
aI4550
aI7661
aI5843
aI5750
aI5248
aI7571
aI8098
aI4191
aI4646
aI6276
aI6222
aI3757
aI2015
aI1214
aI3674
aI9697
aI9271
aI1194
aI8155
aI1656
aI3036
aI2893
aI8531
aI4582
aI258
aI7028
aI5822
aI3525
aI7664
aI5362
aI6265
aI2626
aI792
aI5116
aI8327
aI2815
aI6448
aI8601
aI7306
aI9922
aI8416
aI5664
aI3903
aI2973
aI1246
aI8801
aI9772
aI1897
aI4113
aI1404
aI7711
aI4898
aI7471
aI8163
aI7960
aI7023
aI3875
aI9055
aI8792
aI4195
aI4538
aI8609
aI5594
aI523
aI4433
aI6184
aI3833
aI2993
aI7443
aI8
aI5844
aI1210
aI4049
aI9732
aI4293
aI1411
aI4922
aI4088
aI2356
aI7300
aI8753
aI1680
aI3005
aI8230
aI4676
aI571
aI8464
aI8622
aI2982
aI3068
aI4324
aI4005
aI9473
aI9199
aI1180
aI5836
aI3990
aI8037
aI9781
aI2246
aI4079
aI3274
aI55
aI2578
aI8711
aI4211
aI4259
aI6831
aI9400
aI9679
aI3569
aI8994
aI5494
aI5011
aI2192
aI8798
aI7542
aI4291
aI7257
aI8184
aI8989
aI4692
aI9520
aI10156
aI2271
aI6031
aI5861
aI8808
aI1701
aI4681
aI7841
aI8748
aI4144
aI4384
aI1352
aI2852
aI542
aI8806
aI6680
aI1717
aI5561
aI6291
aI6687
aI727
aI8770
aI1229
aI1233
aI7337
aI9346
aI5121
aI1896
aI6081
aI4040
aI5432
aI10210
aI5635
aI9401
aI496
aI725
aI1332
aI9689
aI4097
aI3983
aI2132
aI8485
aI257
aI7721
aI7884
aI5905
aI9982
aI3030
aI1780
aI1261
aI800
aI8985
aI4165
aI7501
aI1888
aI6289
aI1510
aI3656
aI8102
aI3673
aI6240
aI6300
aI9876
aI3090
aI2010
aI7099
aI3489
aI4180
aI1925
aI7262
aI4973
aI1538
aI8133
aI4397
aI5367
aI7872
aI6079
aI6739
aI2435
aI2133
aI4984
aI284
aI8172
aI79
aI10204
aI9110
aI9618
aI3271
aI4188
aI3163
aI3722
aI9727
aI4493
aI8480
aI66
aI7860
aI9828
aI10011
aI8588
aI6545
aI8651
aI5543
aI6712
aI4056
aI3959
aI4339
aI5136
aI594
aI4749
aI5225
aI5449
aI9569
aI5264
aI633
aI4904
aI2400
aI1263
aI5979
aI6295
aI8706
aI8299
aI4742
aI4949
aI7010
aI5395
aI2099
aI5549
aI7177
aI5019
aI3117
aI4146
aI2509
aI3606
aI5307
aI6433
aI2792
aI6360
aI4911
aI6452
aI7600
aI1690
aI365
aI7957
aI7573
aI3276
aI9364
aI8298
aI5098
aI8646
aI4118
aI4515
aI3565
aI570
aI4363
aI1101
aI9154
aI2463
aI7299
aI2157
aI8637
aI6537
aI10182
aI3881
aI7832
aI9218
aI5554
aI7724
aI5514
aI501
aI6126
aI1810
aI6024
aI3310
aI5851
aI97
aI3018
aI6238
aI5228
aI2983
aI421
aI2507
aI7197
aI8258
aI1040
aI209
aI7876
aI4859
aI5653
aI7727
aI2014
aI5087
aI8687
aI8499
aI7075
aI9682
aI5819
aI8440
aI2731
aI2284
aI8178
aI6419
aI4152
aI1281
aI3965
aI1841
aI9420
aI6440
aI6021
aI4830
aI7842
aI1930
aI6233
aI268
aI4382
aI8020
aI3713
aI2096
aI1183
aI831
aI5789
aI8675
aI6420
aI2128
aI204
aI5347
aI8758
aI9801
aI6651
aI7829
aI3339
aI184
aI9335
aI366
aI9923
aI147
aI9263
aI5552
aI5496
aI6336
aI937
aI4503
aI9824
aI8415
aI7927
aI891
aI1597
aI5403
aI330
aI4570
aI5741
aI3975
aI6185
aI7130
aI5942
aI9247
aI6986
aI3649
aI4420
aI1187
aI1344
aI969
aI4021
aI457
aI9143
aI9121
aI4567
aI5776
aI2038
aI8224
aI394
aI1063
aI7100
aI294
aI1626
aI8913
aI7948
aI271
aI5775
aI688
aI4786
aI6822
aI616
aI929
aI5237
aI674
aI5698
aI2002
aI2269
aI9948
aI8045
aI4080
aI9719
aI7013
aI3581
aI5501
aI2716
aI2797
aI5597
aI1577
aI8253
aI9701
aI8201
aI9322
aI1635
aI6908
aI7972
aI3572
aI2016
aI764
aI4806
aI1544
aI7989
aI6290
aI2618
aI1844
aI6427
aI834
aI8059
aI6550
aI5758
aI9587
aI7062
aI2409
aI2419
aI3275
aI2143
aI1984
aI5236
aI9741
aI6462
aI8478
aI8469
aI254
aI4652
aI5502
aI7888
aI2602
aI1444
aI1547
aI7218
aI4015
aI1522
aI6885
aI6859
aI2229
aI358
aI1508
aI4163
aI3806
aI2721
aI5988
aI1960
aI9380
aI4608
aI2169
aI84
aI4701
aI761
aI1709
aI657
aI8569
aI223
aI9482
aI7431
aI2611
aI1102
aI4628
aI5127
aI5910
aI7895
aI3559
aI4093
aI1471
aI8366
aI3166
aI6856
aI4510
aI3729
aI5284
aI4185
aI4555
aI5922
aI7308
aI6430
aI7464
aI8341
aI7346
aI2083
aI3350
aI4833
aI7480
aI6837
aI4059
aI9857
aI1722
aI5355
aI1587
aI4068
aI1104
aI7958
aI7636
aI5720
aI8267
aI7615
aI3420
aI2968
aI6332
aI393
aI8047
aI7992
aI9622
aI3358
aI5298
aI4207
aI3053
aI6914
aI1023
aI1553
aI2352
aI651
aI199
aI3519
aI7494
aI2667
aI7193
aI5783
aI2017
aI3735
aI8701
aI3165
aI2616
aI4884
aI2850
aI6491
aI1420
aI4677
aI4864
aI8980
aI7951
aI1867
aI6812
aI2339
aI8891
aI8838
aI10053
aI741
aI8785
aI9631
aI540
aI7847
aI3843
aI8691
aI5301
aI4123
aI46
aI8175
aI3634
aI933
aI9293
aI2638
aI9761
aI5547
aI2476
aI8303
aI541
aI2482
aI8922
aI2617
aI1837
aI589
aI3966
aI4268
aI2048
aI127
aI6842
aI861
aI3421
aI4587
aI4578
aI1
aI4023
aI7688
aI4250
aI7718
aI7241
aI5160
aI6851
aI9676
aI7159
aI134
aI3846
aI304
aI10117
aI4011
aI4018
aI7544
aI1341
aI2342
aI8085
aI8293
aI1695
aI6518
aI6334
aI2094
aI295
aI5017
aI7472
aI5911
aI7273
aI1243
aI940
aI4115
aI911
aI8973
aI8496
aI2433
aI6728
aI6798
aI2690
aI719
aI8901
aI7678
aI2567
aI8683
aI7868
aI8579
aI6538
aI7909
aI100
aI1531
aI4285
aI7698
aI4985
aI4856
aI6089
aI7349
aI8338
aI7291
aI8295
aI3823
aI9956
aI8935
aI4755
aI3456
aI316
aI5625
aI1852
aI3736
aI1630
aI8933
aI4740
aI985
aI564
aI2816
aI5300
aI2954
aI9475
aI2322
aI1766
aI8661
aI6833
aI5322
aI2555
aI2542
aI1154
aI1967
aI9355
aI6339
aI2092
aI8971
aI6658
aI1912
aI2748
aI3828
aI4366
aI452
aI5253
aI6203
aI8252
aI6309
aI7281
aI1248
aI355
aI6503
aI9050
aI4323
aI1489
aI8106
aI9630
aI3754
aI3191
aI8473
aI3102
aI8627
aI9787
aI3535
aI9021
aI3692
aI9190
aI9820
aI9655
aI759
aI5477
aI181
aI1228
aI6679
aI7638
aI6720
aI6735
aI4722
aI2838
aI3177
aI7528
aI5617
aI7504
aI6607
aI6086
aI598
aI8498
aI7384
aI9524
aI7022
aI1487
aI815
aI5325
aI1718
aI5117
aI9999
aI1910
aI6155
aI7646
aI3174
aI8784
aI5166
aI1851
aI6352
aI3170
aI6780
aI469
aI2425
aI6526
aI3684
aI5151
aI7761
aI550
aI10179
aI1593
aI3241
aI4149
aI4393
aI5722
aI8479
aI323
aI9119
aI384
aI4466
aI6504
aI2692
aI9694
aI9750
aI9141
aI4836
aI5410
aI8083
aI7051
aI3927
aI2004
aI2360
aI3488
aI3792
aI10002
aI6232
aI8616
aI1540
aI1103
aI5880
aI9815
aI9584
aI7046
aI10159
aI8920
aI5001
aI5841
aI3935
aI2021
aI1464
aI2924
aI2005
aI669
aI9695
aI7713
aI4431
aI50
aI6114
aI6281
aI9075
aI2656
aI2467
aI8512
aI824
aI424
aI9562
aI907
aI2235
aI2025
aI8843
aI1686
aI2992
aI6792
aI6239
aI7916
aI7037
aI9439
aI620
aI3409
aI71
aI5718
aI7627
aI9209
aI9468
aI6988
aI7489
aI1041
aI6525
aI6558
aI6749
aI3797
aI8331
aI8982
aI3850
aI1300
aI9813
aI8912
aI6346
aI8144
aI111
aI2148
aI6367
aI9606
aI4993
aI10175
aI7610
aI3768
aI4521
aI2810
aI2559
aI8549
aI2317
aI2639
aI6059
aI1956
aI9101
aI9487
aI5685
aI7009
aI743
aI6528
aI5342
aI850
aI677
aI9222
aI5680
aI7272
aI827
aI9517
aI8380
aI1319
aI7032
aI9814
aI23
aI6517
aI9393
aI3888
aI7739
aI6128
aI5830
aI1381
aI8206
aI7369
aI3459
aI8673
aI6935
aI1470
aI7845
aI9510
aI1059
aI970
aI4710
aI9505
aI9104
aI9546
aI8572
aI5452
aI10013
aI7314
aI3760
aI10141
aI5455
aI9147
aI359
aI9687
aI8487
aI4829
aI1062
aI8054
aI1797
aI2906
aI4310
aI3859
aI4367
aI3239
aI3198
aI1952
aI5226
aI8945
aI7901
aI2539
aI9808
aI9519
aI5411
aI9450
aI562
aI5382
aI8491
aI2311
aI7827
aI6099
aI8567
aI8799
aI3017
aI1296
aI4882
aI5330
aI3841
aI5389
aI5336
aI4307
aI1034
aI5473
aI1689
aI6363
aI7094
aI9698
aI5846
aI8228
aI2693
aI10183
aI7441
aI3121
aI7792
aI9915
aI2209
aI8561
aI6944
aI4759
aI9978
aI2553
aI2689
aI3308
aI4160
aI774
aI485
aI8328
aI1389
aI708
aI8752
aI145
aI4192
aI1429
aI5461
aI9114
aI9720
aI963
aI5584
aI8195
aI307
aI5498
aI4379
aI7429
aI3435
aI9115
aI3588
aI1081
aI5614
aI1495
aI1239
aI8436
aI6048
aI5489
aI1051
aI2937
aI3168
aI7018
aI3954
aI3199
aI10038
aI2288
aI2190
aI5815
aI4313
aI1368
aI2825
aI3051
aI3497
aI8602
aI324
aI3848
aI7613
aI3156
aI7225
aI7668
aI3361
aI4951
aI391
aI8188
aI492
aI9196
aI8726
aI7466
aI9485
aI1412
aI114
aI5490
aI3522
aI4125
aI4822
aI1688
aI287
aI7109
aI395
aI281
aI8954
aI1699
aI8847
aI10110
aI9577
aI3724
aI2223
aI6354
aI9350
aI1728
aI4161
aI6227
aI2963
aI6211
aI6254
aI9558
aI5348
aI9360
aI4131
aI6385
aI3702
aI3556
aI8951
aI56
aI5618
aI1942
aI9447
aI8277
aI1357
aI2320
aI2365
aI8065
aI9729
aI7576
aI3399
aI7415
aI1478
aI5536
aI6563
aI2389
aI9916
aI7240
aI9853
aI1562
aI226
aI7510
aI1079
aI7490
aI1223
aI6588
aI276
aI7807
aI10008
aI2413
aI573
aI1546
aI9617
aI5593
aI7560
aI3940
aI372
aI648
aI1252
aI2301
aI7196
aI6465
aI5047
aI9399
aI6145
aI4942
aI605
aI7198
aI8906
aI7059
aI183
aI5152
aI3235
aI9571
aI1857
aI8211
aI7920
aI4081
aI418
aI6807
aI8663
aI3879
aI8297
aI1305
aI6264
aI5931
aI2585
aI784
aI1260
aI4967
aI777
aI1805
aI2416
aI2026
aI5839
aI477
aI2193
aI675
aI2279
aI6174
aI6415
aI6596
aI744
aI4472
aI1955
aI5919
aI186
aI8204
aI2864
aI9363
aI5107
aI6781
aI7953
aI4206
aI8565
aI2214
aI2648
aI5521
aI2510
aI249
aI8990
aI4344
aI6597
aI6752
aI3752
aI1862
aI8263
aI325
aI3153
aI3255
aI3091
aI5542
aI9977
aI3220
aI5715
aI4586
aI7266
aI3979
aI1127
aI6244
aI6692
aI1136
aI6345
aI5897
aI1919
aI6678
aI2458
aI9513
aI3904
aI3558
aI5693
aI9950
aI6307
aI798
aI7696
aI6489
aI7389
aI3411
aI9090
aI7253
aI6529
aI8024
aI7669
aI6388
aI371
aI6684
aI6207
aI2641
aI1881
aI7284
aI3681
aI988
aI1124
aI1551
aI2957
aI4208
aI6004
aI9961
aI9133
aI7174
aI5407
aI4529
aI694
aI8596
aI7458
aI1021
aI9418
aI5189
aI8543
aI5797
aI8747
aI4923
aI2218
aI3123
aI201
aI9905
aI9311
aI3222
aI4235
aI1761
aI10061
aI3790
aI1710
aI5673
aI9643
aI6557
aI10054
aI9900
aI2833
aI7656
aI149
aI8924
aI874
aI6078
aI7676
aI8391
aI6541
aI2205
aI4663
aI7150
aI8519
aI5937
aI8256
aI5246
aI635
aI1698
aI1748
aI5952
aI474
aI4919
aI5746
aI2007
aI2080
aI1991
aI2928
aI117
aI608
aI876
aI2345
aI435
aI3427
aI2603
aI4883
aI5148
aI7966
aI5191
aI676
aI3594
aI2642
aI4092
aI5550
aI5165
aI7141
aI6937
aI10058
aI6064
aI855
aI4689
aI3347
aI8466
aI5130
aI4774
aI8229
aI4553
aI545
aI8082
aI1488
aI3504
aI8067
aI7149
aI2839
aI3097
aI5899
aI9175
aI9440
aI2804
aI4046
aI5503
aI2201
aI4994
aI9274
aI6580
aI442
aI8000
aI3824
aI5381
aI5260
aI7834
aI5046
aI389
aI7693
aI4423
aI9896
aI9292
aI3139
aI8307
aI7976
aI5517
aI6136
aI2767
aI7878
aI6755
aI1749
aI5640
aI3775
aI4497
aI6797
aI3031
aI4913
aI9081
aI385
aI1374
aI8275
aI4341
aI4526
aI4723
aI2113
aI4756
aI8301
aI2801
aI6429
aI7936
aI2282
aI10017
aI5575
aI8642
aI3644
aI7307
aI3529
aI3709
aI2298
aI167
aI24
aI9700
aI5916
aI9412
aI9029
aI731
aI806
aI1231
aI4150
aI4797
aI2310
aI7128
aI5431
aI6405
aI1994
aI61
aI2372
aI9207
aI3207
aI5315
aI8680
aI9229
aI9757
aI4355
aI8788
aI3432
aI7402
aI4717
aI1589
aI2401
aI9928
aI9242
aI2791
aI9176
aI407
aI3413
aI9680
aI7275
aI9095
aI7232
aI8526
aI4385
aI2292
aI875
aI8577
aI1394
aI6395
aI5223
aI4667
aI7511
aI43
aI8025
aI370
aI8707
aI9436
aI2610
aI8956
aI8073
aI4760
aI4263
aI4766
aI1297
aI7204
aI7604
aI7324
aI1270
aI10176
aI2836
aI2490
aI718
aI331
aI2621
aI1561
aI8153
aI4034
aI2846
aI3436
aI7113
aI5279
aI7278
aI7
aI8453
aI6370
aI3114
aI175
aI1768
aI4413
aI7268
aI7221
aI4571
aI6813
aI5454
aI5171
aI3251
aI152
aI8936
aI2654
aI3376
aI6319
aI7908
aI464
aI9874
aI2470
aI9030
aI4201
aI3860
aI8774
aI9753
aI9365
aI1378
aI5372
aI6828
aI7632
aI8079
aI5855
aI2326
aI2030
aI6350
aI2167
aI597
aI2052
aI494
aI9219
aI3026
aI5706
aI3405
aI4275
aI6613
aI6941
aI3809
aI4816
aI2240
aI689
aI2199
aI2159
aI1784
aI754
aI3785
aI4524
aI9880
aI6274
aI7863
aI7671
aI2934
aI7446
aI7591
aI8010
aI9768
aI2328
aI6328
aI9936
aI9171
aI1454
aI3689
aI778
aI7702
aI974
aI7112
aI2965
aI7418
aI4560
aI6475
aI415
aI1492
aI8881
aI7202
aI5710
aI9608
aI2231
aI3216
aI9203
aI2636
aI9277
aI6906
aI3627
aI261
aI4094
aI4924
aI7515
aI5071
aI2671
aI10170
aI2568
aI8336
aI6381
aI3894
aI4100
aI6237
aI5726
aI4322
aI1415
aI8841
aI4850
aI8910
aI4617
aI9713
aI1438
aI9639
aI8759
aI1646
aI4048
aI9144
aI3789
aI6190
aI8639
aI3771
aI9539
aI5000
aI3737
aI9260
aI2733
aI7593
aI4992
aI9759
aI3064
aI2059
aI7644
aI9426
aI4627
aI5562
aI2880
aI6904
aI7880
aI6110
aI1080
aI5109
aI9187
aI5170
aI1141
aI2073
aI5097
aI3910
aI6589
aI9554
aI4784
aI9844
aI5748
aI6897
aI3093
aI915
aI7301
aI5198
aI2337
aI5556
aI5106
aI8362
aI7738
aI6667
aI7271
aI7529
aI5681
aI3856
aI8007
aI1908
aI211
aI7978
aI8472
aI4763
aI939
aI1150
aI617
aI1757
aI1639
aI468
aI1933
aI1069
aI1045
aI7410
aI4361
aI5578
aI8344
aI1674
aI4562
aI4156
aI982
aI1734
aI706
aI9449
aI9278
aI8170
aI1503
aI2324
aI3896
aI8332
aI6700
aI9067
aI3638
aI4920
aI1256
aI3590
aI1109
aI4422
aI5583
aI5456
aI3643
aI6978
aI1106
aI2604
aI1603
aI5217
aI3721
aI3542
aI7313
aI419
aI4002
aI4639
aI4370
aI3110
aI10035
aI7692
aI4365
aI6993
aI853
aI6702
aI2034
aI9782
aI174
aI2898
aI4204
aI10174
aI3462
aI3404
aI9648
aI7654
aI128
aI8761
aI3244
aI5837
aI4033
aI4936
aI5390
aI4030
aI3028
aI1743
aI5881
aI4415
aI3200
aI9990
aI2596
aI6275
aI9800
aI6899
aI398
aI4098
aI4880
aI6314
aI3913
aI999
aI4368
aI852
aI9826
aI6794
aI260
aI3892
aI410
aI8196
aI995
aI6121
aI9537
aI7404
aI5299
aI4071
aI8152
aI37
aI5733
aI3791
aI8122
aI9264
aI10069
aI2686
aI8733
aI6153
aI8292
aI2566
aI9038
aI8001
aI1846
aI6246
aI4928
aI2523
aI9091
aI9361
aI7609
aI4194
aI8116
aI7776
aI4421
aI4304
aI750
aI1377
aI9041
aI5255
aI2499
aI2576
aI4899
aI3077
aI6043
aI5915
aI2187
aI8009
aI8087
aI3912
aI3662
aI640
aI6985
aI493
aI6834
aI7994
aI4026
aI7328
aI2902
aI8026
aI6364
aI6592
aI923
aI7401
aI1032
aI9267
aI7259
aI8285
aI8477
aI2798
aI1272
aI2006
aI8070
aI3518
aI193
aI2138
aI5734
aI8235
aI2871
aI5645
aI9947
aI4837
aI5422
aI4225
aI7894
aI8874
aI511
aI8400
aI3228
aI2264
aI3211
aI9310
aI1397
aI5320
aI4369
aI8685
aI8243
aI3148
aI487
aI10056
aI5986
aI6977
aI4638
aI1012
aI6077
aI6976
aI4006
aI1865
aI1185
aI9739
aI6934
aI8095
aI5702
aI2579
aI1416
aI535
aI8136
aI9773
aI8092
aI8944
aI3971
aI7331
aI2865
aI163
aI7996
aI3363
aI2084
aI8407
aI227
aI3122
aI3793
aI10169
aI4373
aI4670
aI2778
aI5508
aI9182
aI5267
aI7156
aI86
aI4051
aI4900
aI5921
aI4730
aI3041
aI239
aI5418
aI9230
aI936
aI9333
aI1557
aI2851
aI6871
aI4016
aI6994
aI844
aI4558
aI2378
aI1067
aI6073
aI9858
aI4444
aI1224
aI4271
aI6717
aI6894
aI5872
aI4792
aI4062
aI7854
aI6796
aI3382
aI470
aI8652
aI8180
aI10164
aI9316
aI5941
aI6481
aI1568
aI8878
aI8666
aI9221
aI1504
aI3332
aI5838
aI1872
aI9124
aI3550
aI4801
aI5238
aI587
aI7428
aI6252
aI7745
aI2468
aI9656
aI1596
aI9089
aI8921
aI7491
aI6273
aI6280
aI896
aI6342
aI356
aI665
aI432
aI5293
aI7649
aI2391
aI1533
aI3880
aI7965
aI427
aI510
aI1860
aI3154
aI8107
aI8104
aI4177
aI7250
aI6568
aI4950
aI4360
aI9295
aI9530
aI4788
aI2309
aI9326
aI6710
aI3392
aI5311
aI288
aI4265
aI6868
aI7843
aI3696
aI1278
aI9166
aI1812
aI952
aI1863
aI5424
aI2819
aI2581
aI5457
aI5821
aI3619
aI9789
aI2364
aI509
aI2475
aI10195
aI3410
aI4009
aI96
aI4143
aI3201
aI5990
aI9040
aI9721
aI3941
aI8161
aI6759
aI8490
aI6618
aI5203
aI652
aI8679
aI3264
aI4119
aI4474
aI1132
aI1212
aI8681
aI1869
aI6262
aI2746
aI4052
aI3058
aI4468
aI9875
aI8409
aI3672
aI2779
aI9522
aI5270
aI9668
aI1340
aI4332
aI948
aI7256
aI4147
aI1769
aI2678
aI390
aI7357
aI7321
aI7546
aI4157
aI8321
aI1181
aI10149
aI4450
aI1650
aI2803
aI409
aI4662
aI5327
aI2112
aI642
aI4682
aI6903
aI1622
aI6561
aI1307
aI2945
aI5906
aI9736
aI2447
aI2723
aI2037
aI2367
aI8959
aI6084
aI74
aI6606
aI5174
aI4171
aI8876
aI4879
aI6168
aI1226
aI8378
aI8148
aI4274
aI9538
aI9377
aI4770
aI8396
aI7089
aI1206
aI4787
aI8018
aI10190
aI1383
aI2556
aI8648
aI8534
aI5703
aI1455
aI6519
aI10131
aI8698
aI9113
aI8551
aI945
aI1904
aI3560
aI5463
aI1204
aI7660
aI4889
aI3596
aI6544
aI7984
aI2258
aI1793
aI4237
aI7255
aI4319
aI4124
aI6017
aI3614
aI2550
aI7290
aI4451
aI8141
aI320
aI5286
aI471
aI6581
aI6180
aI9667
aI3807
aI9189
aI4396
aI6029
aI5975
aI7066
aI6113
aI9153
aI2153
aI311
aI3628
aI1058
aI2383
aI3528
aI8193
aI6230
aI6169
aI77
aI7869
aI578
aI2877
aI7134
aI8815
aI7657
aI1029
aI5448
aI8751
aI6140
aI4453
aI109
aI762
aI1329
aI4634
aI3974
aI7622
aI3345
aI2131
aI2557
aI3002
aI4388
aI1222
aI10016
aI8176
aI910
aI8372
aI9142
aI1173
aI5252
aI9005
aI1164
aI6664
aI6202
aI6439
aI6272
aI8509
aI7269
aI8393
aI5755
aI6369
aI5694
aI6971
aI4459
aI796
aI887
aI2437
aI9108
aI1110
aI5929
aI16
aI8337
aI3223
aI6052
aI7995
aI1186
aI2890
aI9410
aI2039
aI2745
aI4840
aI7652
aI3234
aI9444
aI7492
aI3593
aI7029
aI6907
aI450
aI7373
aI5034
aI338
aI9888
aI3770
aI9976
aI4403
aI4738
aI7309
aI9009
aI7061
aI8124
aI4894
aI5777
aI6611
aI3320
aI6161
aI1795
aI3602
aI507
aI1015
aI6414
aI4852
aI3552
aI3956
aI9693
aI4533
aI7985
aI8695
aI7397
aI49
aI6380
aI7137
aI2125
aI41
aI9634
aI8986
aI9245
aI5357
aI1963
aI6566
aI5656
aI8265
aI9564
aI4735
aI2379
aI4644
aI9868
aI4155
aI3621
aI4242
aI1310
aI1819
aI417
aI3470
aI9580
aI1949
aI1230
aI584
aI8886
aI7154
aI4805
aI1451
aI6788
aI3609
aI6629
aI3551
aI1966
aI8914
aI7605
aI2029
aI4596
aI3128
aI2614
aI5600
aI2161
aI4375
aI4308
aI1765
aI6441
aI8809
aI6665
aI5820
aI9158
aI9593
aI532
aI215
aI9955
aI9250
aI6627
aI3108
aI3118
aI3905
aI9908
aI2583
aI8315
aI7091
aI9988
aI3741
aI3870
aI3901
aI8051
aI3495
aI3787
aI9212
aI8266
aI2420
aI1804
aI7720
aI2951
aI1617
aI5647
aI6032
aI5616
aI9120
aI7076
aI1514
aI7902
aI1679
aI2267
aI885
aI252
aI9553
aI3394
aI179
aI5887
aI433
aI9328
aI7176
aI5245
aI8213
aI613
aI8946
aI5199
aI775
aI6773
aI9583
aI6496
aI9933
aI2773
aI6299
aI4915
aI8578
aI3503
aI873
aI3492
aI6511
aI4781
aI1371
aI8940
aI7242
aI1973
aI1832
aI871
aI1706
aI3715
aI310
aI6082
aI9496
aI1615
aI3129
aI7481
aI8778
aI9258
aI2981
aI4345
aI6120
aI4552
aI4129
aI3720
aI4469
aI2141
aI2580
aI9126
aI6892
aI225
aI1432
aI7217
aI6361
aI1536
aI2344
aI1940
aI3967
aI3418
aI4867
aI2879
aI274
aI1007
aI3987
aI4971
aI5478
aI7812
aI1922
aI6669
aI5144
aI1572
aI10153
aI4931
aI1580
aI4656
aI1446
aI9774
aI2730
aI5281
aI7451
aI797
aI5920
aI672
aI1201
aI4637
aI8384
aI5825
aI5177
aI7312
aI1767
aI557
aI2933
aI2134
aI2962
aI2782
aI4391
aI5359
aI712
aI158
aI9269
aI3678
aI1414
aI683
aI2720
aI1899
aI4500
aI3646
aI863
aI5955
aI9276
aI1129
aI27
aI8387
aI8513
aI8287
aI8817
aI2461
aI6587
aI2351
aI5310
aI3635
aI552
aI2283
aI4297
aI7988
aI2011
aI4105
aI6943
aI8795
aI634
aI10072
aI3301
aI3356
aI8099
aI4495
aI3387
aI4937
aI4333
aI878
aI13
aI7575
aI890
aI448
aI4640
aI6719
aI9811
aI4001
aI2225
aI1616
aI8835
aI9987
aI6850
aI3287
aI255
aI4674
aI4604
aI7199
aI637
aI3537
aI5898
aI5212
aI868
aI8333
aI7117
aI9248
aI5100
aI3461
aI9051
aI7945
aI3530
aI3657
aI8500
aI4727
aI6789
aI6713
aI9343
aI3589
aI8938
aI2619
aI7538
aI9111
aI2535
aI1683
aI5953
aI343
aI3257
aI6809
aI1707
aI2980
aI4941
aI2424
aI3015
aI8657
aI5068
aI7849
aI2511
aI8371
aI8410
aI5080
aI9567
aI7340
aI219
aI1254
aI9665
aI6653
aI6460
aI9598
aI1527
aI7944
aI2442
aI8427
aI8968
aI5753
aI7527
aI9877
aI3484
aI5804
aI7068
aI5150
aI9251
aI4642
aI6271
aI8502
aI4130
aI3365
aI8658
aI6141
aI9585
aI8166
aI170
aI375
aI5040
aI124
aI2046
aI7922
aI3640
aI5471
aI3570
aI8345
aI2931
aI8550
aI3501
aI857
aI8653
aI7838
aI4477
aI336
aI3652
aI4991
aI3576
aI5051
aI3046
aI864
aI3351
aI2023
aI5465
aI601
aI4484
aI9206
aI4260
aI2259
aI1501
aI2582
aI5467
aI2546
aI7710
aI4848
aI840
aI5345
aI3206
aI10129
aI9479
aI4276
aI1468
aI1339
aI4103
aI30
aI2889
aI2872
aI9208
aI7361
aI8763
aI5557
aI6610
aI8598
aI1122
aI4703
aI4978
aI9137
aI512
aI3520
aI4995
aI649
aI8049
aI524
aI2121
aI8870
aI6065
aI3889
aI19
aI7136
aI6652
aI9575
aI9638
aI9461
aI1702
aI5744
aI1220
aI8246
aI10189
aI3500
aI2338
aI195
aI3464
aI6096
aI8918
aI5069
aI7772
aI2440
aI729
aI7186
aI5580
aI6467
aI8855
aI2020
aI2142
aI6331
aI2291
aI7172
aI9174
aI4085
aI9806
aI4277
aI5427
aI679
aI7362
aI10093
aI4483
aI2208
aI1519
aI3033
aI303
aI6595
aI7858
aI7881
aI9723
aI4888
aI2676
aI8536
aI8705
aI8566
aI2452
aI1249
aI2562
aI4926
aI4096
aI2805
aI9724
aI2178
aI9072
aI6666
aI6172
aI6835
aI10000
aI2312
aI5481
aI7359
aI3072
aI5530
aI5309
aI2405
aI6270
aI2896
aI4178
aI9856
aI5190
aI2411
aI203
aI1871
aI8447
aI8894
aI9390
aI4070
aI4849
aI3305
aI1476
aI5278
aI21
aI9975
aI6260
aI8734
aI5243
aI2100
aI8084
aI9839
aI2184
aI4659
aI2459
aI5479
aI10005
aI10168
aI697
aI475
aI4702
aI5579
aI5003
aI3087
aI7877
aI3019
aI4045
aI8061
aI1153
aI8754
aI1569
aI4599
aI4189
aI7063
aI5296
aI4301
aI2414
aI8325
aI913
aI2434
aI5437
aI4716
aI2343
aI9085
aI3304
aI6179
aI5386
aI8671
aI7016
aI8423
aI5123
aI7439
aI2098
aI7354
aI3212
aI5175
aI4525
aI2788
aI3780
aI1334
aI7108
aI2013
aI1060
aI9568
aI6704
aI8889
aI5099
aI7214
aI4010
aI7793
aI2455
aI4205
aI6900
aI222
aI8156
aI2237
aI6625
aI2385
aI2600
aI7643
aI5145
aI479
aI4800
aI8242
aI5341
aI5917
aI7074
aI8013
aI2319
aI3425
aI4456
aI5038
aI5769
aI3568
aI9851
aI2575
aI3510
aI3289
aI9670
aI928
aI1535
aI1719
aI5747
aI2124
aI4470
aI7642
aI8825
aI6288
aI5028
aI691
aI7042
aI5592
aI7598
aI6989
aI4932
aI5904
aI5036
aI4658
aI5973
aI7821
aI144
aI4764
aI7941
aI4122
aI3176
aI5893
aI8762
aI95
aI9297
aI5
aI2474
aI1566
aI4621
aI7120
aI3629
aI7873
aI6499
aI8764
aI546
aI4979
aI5696
aI8585
aI4609
aI6147
aI1351
aI8233
aI3224
aI8221
aI4598
aI2907
aI8928
aI6513
aI713
aI9891
aI2195
aI8471
aI1328
aI1755
aI8842
aI161
aI9984
aI7356
aI3617
aI2503
aI1774
aI6708
aI3993
aI5105
aI9492
aI8846
aI5577
aI7231
aI5866
aI2571
aI1676
aI7462
aI1848
aI8245
aI9576
aI8729
aI156
aI2213
aI383
aI8446
aI3660
aI6640
aI4581
aI4348
aI3065
aI7946
aI783
aI1277
aI5711
aI10029
aI869
aI2698
aI1517
aI3928
aI3948
aI8791
aI1311
aI6672
aI3189
aI2744
aI6832
aI2060
aI4037
aI6947
aI9550
aI9411
aI9699
aI91
aI4350
aI6933
aI1312
aI9776
aI5050
aI7067
aI6521
aI9602
aI1211
aI1417
aI426
aI5075
aI6229
aI4217
aI2396
aI10115
aI9957
aI9958
aI6659
aI7904
aI6660
aI7387
aI9603
aI8859
aI1740
aI5066
aI7457
aI8034
aI3610
aI1703
aI8078
aI8015
aI6209
aI9287
aI6858
aI7289
aI8662
aI3866
aI6394
aI4065
aI1251
aI2940
aI1092
aI3620
aI7341
aI5499
aI1382
aI9832
aI3445
aI6365
aI4441
aI4691
aI4724
aI3855
aI3873
aI8249
aI4559
aI248
aI4981
aI7629
aI5141
aI4683
aI4549
aI9785
aI3047
aI2958
aI6224
aI8030
aI1634
aI10040
aI2707
aI4199
aI3963
aI3772
aI5183
aI7968
aI9849
aI7060
aI7933
aI9214
aI3
aI10197
aI1099
aI636
aI678
aI4414
aI4452
aI4794
aI5303
aI151
aI8919
aI1763
aI749
aI7802
aI5039
aI9504
aI1462
aI1585
aI5962
aI7442
aI5370
aI707
aI428
aI412
aI9309
aI1177
aI7496
aI7815
aI4294
aI4241
aI6598
aI291
aI1324
aI1801
aI4428
aI680
aI8492
aI7021
aI6515
aI9762
aI4153
aI10074
aI5139
aI9989
aI8174
aI6748
aI7810
aI9304
aI5679
aI9036
aI1301
aI6505
aI5688
aI5460
aI4490
aI4796
aI4256
aI3038
aI6636
aI5935
aI1290
aI1612
aI819
aI6428
aI1647
aI2772
aI4611
aI8863
aI6567
aI7435
aI3945
aI9663
aI6803
aI5274
aI2781
aI5262
aI6261
aI7963
aI5691
aI1796
aI7175
aI7852
aI5633
aI8773
aI6860
aI1729
aI3861
aI2043
aI6228
aI9755
aI1253
aI3654
aI9751
aI7235
aI3578
aI8849
aI4892
aI6668
aI6204
aI6493
aI8105
aI7516
aI4579
aI140
aI9855
aI1379
aI1308
aI3014
aI5994
aI8630
aI4109
aI7709
aI9605
aI8689
aI8927
aI4106
aI1823
aI1809
aI7070
aI5754
aI4408
aI9123
aI9392
aI10166
aI10124
aI420
aI9027
aI7805
aI5847
aI8690
aI5970
aI8682
aI363
aI1475
aI8257
aI232
aI6979
aI747
aI2548
aI530
aI4449
aI4318
aI7420
aI2330
aI9387
aI9971
aI6811
aI172
aI5157
aI5006
aI8197
aI3444
aI3008
aI9794
aI1545
aI2749
aI2206
aI386
aI7824
aI6173
aI2224
aI5801
aI5445
aI647
aI1892
aI7751
aI1275
aI9683
aI7942
aI2728
aI6845
aI8684
aI10125
aI7857
aI6396
aI1238
aI2740
aI3822
aI9660
aI6931
aI5065
aI8022
aI5581
aI3690
aI8199
aI7374
aI5288
aI9044
aI6718
aI361
aI2473
aI7749
aI4577
aI7358
aI6793
aI6469
aI8414
aI9993
aI7822
aI8130
aI3231
aI2844
aI8563
aI9232
aI4132
aI644
aI3908
aI1360
aI2751
aI2009
aI721
aI4288
aI1165
aI2760
aI317
aI2358
aI1184
aI3998
aI1434
aI3727
aI466
aI8003
aI76
aI7350
aI1105
aI4650
aI4501
aI9462
aI7135
aI8803
aI6514
aI771
aI103
aI5982
aI685
aI2996
aI3233
aI3067
aI2253
aI9303
aI4626
aI704
aI841
aI5433
aI1426
aI1019
aI3759
aI7400
aI4419
aI8381
aI8636
aI1752
aI789
aI9374
aI2058
aI10185
aI4455
aI4908
aI7229
aI8557
aI7260
aI7564
aI9511
aI1209
aI3699
aI5738
aI7436
aI8428
aI8857
aI4831
aI9635
aI537
aI6590
aI7755
aI6058
aI4226
aI3923
aI5978
aI1295
aI8590
aI3111
aI7861
aI8837
aI2932
aI7774
aI9319
aI8486
aI9080
aI9332
aI7285
aI8118
aI934
aI4425
aI3773
aI9394
aI9760
aI1803
aI2806
aI882
aI6154
aI10123
aI4547
aI6189
aI7686
aI6763
aI7425
aI6757
aI3169
aI9299
aI5319
aI9557
aI3149
aI7685
aI7625
aI5487
aI10073
aI6787
aI6830
aI8216
aI1327
aI2645
aI5402
aI931
aI5971
aI630
aI7568
aI6690
aI205
aI1018
aI7129
aI6413
aI4739
aI1645
aI8080
aI7015
aI5657
aI7585
aI2204
aI9548
aI2371
aI3934
aI5292
aI1815
aI7786
aI9842
aI9180
aI602
aI1900
aI177
aI192
aI9878
aI9467
aI3252
aI7756
aI3895
aI9918
aI1770
aI4364
aI306
aI200
aI7376
aI5024
aI6577
aI164
aI5914
aI5064
aI1824
aI3333
aI8468
aI1441
aI6181
aI6195
aI243
aI4099
aI6758
aI1039
aI730
aI4300
aI7753
aI7840
aI6028
aI740
aI8158
aI9637
aI560
aI10090
aI9809
aI9395
aI2719
aI7025
aI9498
aI7460
aI8771
aI9790
aI6709
aI9962
aI8017
aI9552
aI1732
aI7155
aI377
aI4186
aI8554
aI57
aI1033
aI7153
aI6389
aI6005
aI113
aI835
aI972
aI1576
aI7304
aI9430
aI10047
aI298
aI2216
aI10087
aI3236
aI1868
aI765
aI6540
aI3042
aI6487
aI1791
aI3708
aI1882
aI8987
aI4610
aI6551
aI9711
aI4128
aI2595
aI9048
aI8765
aI4035
aI9003
aI7465
aI4540
aI8656
aI1002
aI2238
aI7925
aI6711
aI3731
aI7681
aI4820
aI4075
aI941
aI6922
aI8664
aI4182
aI4982
aI9366
aI3312
aI1147
aI8063
aI6
aI1259
aI6020
aI233
aI1178
aI895
aI581
aI8278
aI801
aI2943
aI125
aI9128
aI8200
aI8314
aI9422
aI3986
aI1570
aI5655
aI8800
aI8071
aI5416
aI8352
aI3902
aI8279
aI1400
aI2538
aI5757
aI9830
aI18
aI2822
aI445
aI3756
aI4616
aI5695
aI6106
aI4914
aI615
aI9572
aI6895
aI8421
aI4891
aI9323
aI2276
aI7296
aI2552
aI429
aI4590
aI8411
aI5486
aI9169
aI6421
aI6578
aI3599
aI1745
aI8358
aI3099
aI9592
aI242
aI2422
aI8123
aI9356
aI8829
aI4430
aI3601
aI6999
aI2033
aI9907
aI10032
aI2019
aI9042
aI4181
aI3874
aI4886
aI7903
aI5434
aI245
aI9373
aI131
aI4377
aI8032
aI8932
aI118
aI614
aI8736
aI2771
aI10043
aI5662
aI6223
aI1816
aI9025
aI3337
aI1885
aI10037
aI1814
aI5877
aI4853
aI6241
aI8832
aI9317
aI8727
aI7445
aI9425
aI5997
aI2176
aI4342
aI8527
aI3778
aI514
aI5591
aI9478
aI879
aI7026
aI2155
aI2394
aI2406
aI9715
aI5895
aI7064
aI9579
aI10010
aI6039
aI2988
aI3842
aI1735
aI5828
aI1234
aI6626
aI7228
aI3107
aI7697
aI6376
aI805
aI6287
aI3084
aI4697
aI4708
aI104
aI7414
aI5544
aI6873
aI2465
aI872
aI6438
aI2137
aI4620
aI416
aI8273
aI9386
aI8023
aI4283
aI5076
aI4750
aI7555
aI3173
aI1268
aI3105
aI465
aI5420
aI7205
aI6716
aI3476
aI139
aI9965
aI6477
aI838
aI1935
aI5192
aI7699
aI10139
aI7964
aI4846
aI362
aI1602
aI1161
aI7717
aI5193
aI705
aI5654
aI5387
aI15
aI2480
aI2876
aI7915
aI9320
aI7523
aI7959
aI1117
aI2050
aI547
aI5845
aI5637
aI1114
aI5683
aI8789
aI2623
aI10070
aI1457
aI6600
aI3076
aI3458
aI5029
aI4747
aI5474
aI8369
aI2947
aI5397
aI3071
aI6632
aI5870
aI1361
aI6671
aI4595
aI9960
aI8504
aI2423
aI4175
aI5244
aI8957
aI6468
aI6160
aI9118
aI87
aI4410
aI4573
aI7531
aI4827
aI1559
aI5254
aI2572
aI9659
aI9049
aI1550
aI3886
aI9725
aI1864
aI2629
aI3402
aI10052
aI1362
aI8091
aI1323
aI5377
aI8631
aI3717
aI5886
aI9661
aI10105
aI8796
aI3887
aI8967
aI9165
aI837
aI4091
aI2306
aI4258
aI9919
aI6685
aI4432
aI960
aI2821
aI5161
aI1842
aI1073
aI7143
aI7171
aI3547
aI2704
aI9107
aI8723
aI6631
aI3728
aI6917
aI1318
aI6076
aI2373
aI6808
aI4601
aI8004
aI171
aI9314
aI6619
aI4921
aI5774
aI136
aI3151
aI8488
aI1691
aI9910
aI1640
aI9065
aI9924
aI2594
aI9064
aI6691
aI3815
aI6157
aI3811
aI2300
aI7658
aI4337
aI5060
aI7352
aI4520
aI746
aI4412
aI7969
aI9252
aI305
aI2598
aI9094
aI829
aI6397
aI7005
aI3057
aI1915
aI6152
aI9870
aI8234
aI6650
aI6083
aI7237
aI5441
aI2135
aI1579
aI1467
aI6337
aI2382
aI290
aI8871
aI5119
aI5996
aI8403
aI34
aI9031
aI2757
aI5132
aI4711
aI5629
aI5495
aI3680
aI6779
aI6695
aI7890
aI6997
aI513
aI3391
aI776
aI4340
aI8330
aI5138
aI4607
aI10173
aI9979
aI4012
aI2395
aI1469
aI5925
aI684
aI1926
aI6777
aI8964
aI4335
aI2834
aI8006
aI1364
aI1723
aI7532
aI1521
aI7246
aI3109
aI5699
aI3299
aI10111
aI9812
aI3138
aI10039
aI2969
aI6220
aI1162
aI7216
aI7855
aI314
aI4675
aI1199
aI5224
aI7975
aI2710
aI9791
aI1027
aI7775
aI5809
aI5304
aI7220
aI2524
aI5987
aI5091
aI7801
aI8995
aI5162
aI2936
aI236
aI7597
aI8780
aI1574
aI7672
aI6817
aI5938
aI8214
aI7545
aI3704
aI4718
aI4179
aI1145
aI7582
aI5305
aI1931
aI820
aI6459
aI5216
aI9747
aI4439
aI8364
aI3321
aI5438
aI1024
aI6094
aI7189
aI5182
aI9850
aI3491
aI3650
aI1359
aI588
aI9611
aI7497
aI7365
aI3821
aI3270
aI8530
aI5459
aI7072
aI4489
aI6310
aI47
aI6726
aI7475
aI8056
aI3513
aI8826
aI3127
aI1159
aI5827
aI1821
aI884
aI5335
aI9822
aI6926
aI8210
aI6661
aI8261
aI6355
aI5196
aI1954
aI5760
aI9862
aI6196
aI2752
aI6952
aI3009
aI3543
aI2273
aI10085
aI2588
aI3477
aI7006
aI8757
aI3374
aI987
aI785
aI1673
aI4622
aI668
aI10003
aI3795
aI9921
aI2905
aI2794
aI6826
aI728
aI4246
aI1333
aI5749
aI6923
aI6034
aI8119
aI3311
aI4287
aI5596
aI2612
aI7372
aI7552
aI5429
aI7910
aI6308
aI6000
aI6198
aI1941
aI5294
aI5007
aI9396
aI5576
aI6980
aI6050
aI8052
aI5302
aI8401
aI9445
aI6559
aI5660
aI6714
aI4799
aI3538
aI1047
aI2487
aI5482
aI8533
aI2802
aI2974
aI1085
aI9434
aI8432
aI1934
aI5634
aI7286
aI8745
aI662
aI3023
aI3651
aI6543
aI8347
aI9362
aI8373
aI1696
aI1794
aI6358
aI6721
aI1775
aI4561
aI4387
aI9451
aI2354
aI1525
aI3039
aI7875
aI1326
aI2908
aI5684
aI2180
aI1188
aI522
aI3078
aI1762
aI8062
aI3546
aI6769
aI3718
aI4312
aI6193
aI2316
aI7990
aI989
aI9582
aI5610
aI4173
aI185
aI529
aI6127
aI2181
aI2763
aI5331
aI8952
aI9570
aI8866
aI5842
aI8270
aI8186
aI9873
aI5205
aI5368
aI2198
aI387
aI1839
aI6315
aI1502
aI6242
aI208
aI28
aI7574
aI10078
aI1632
aI9526
aI791
aI8558
aI4383
aI10138
aI8097
aI6663
aI9062
aI5515
aI6219
aI9507
aI486
aI3254
aI5980
aI4028
aI1534
aI8203
aI7077
aI4527
aI10214
aI1578
aI9026
aI5414
aI2431
aI8900
aI7283
aI8268
aI2830
aI4349
aI2882
aI9148
aI6522
aI182
aI592
aI2824
aI9134
aI2241
aI843
aI2518
aI1240
aI6921
aI9453
aI9046
aI3591
aI832
aI3534
aI7614
aI1225
aI2695
aI7524
aI3803
aI10057
aI4508
aI1840
aI9783
aI1663
aI7930
aI5215
aI138
aI9690
aI6743
aI9071
aI8269
aI414
aI4203
aI8377
aI8309
aI7303
aI2220
aI4516
aI4878
aI3711
aI4390
aI8854
aI10091
aI4462
aI5765
aI3972
aI8950
aI9599
aI5312
aI4744
aI7811
aI1271
aI8580
aI6920
aI7665
aI4988
aI4632
aI11
aI6478
aI7211
aI4499
aI7655
aI5256
aI6674
aI2355
aI6437
aI4073
aI5957
aI932
aI9057
aI3296
aI8916
aI1413
aI3213
aI851
aI5512
aI8217
aI4111
aI3226
aI8903
aI3281
aI9284
aI4706
aI4478
aI8730
aI10213
aI459
aI5636
aI4929
aI7763
aI6404
aI2990
aI6506
aI4212
aI10014
aI8459
aI8058
aI6129
aI4019
aI3423
aI473
aI8348
aI9807
aI2390
aI10171
aI5896
aI8856
aI7823
aI7932
aI3285
aI8282
aI9714
aI7617
aI7098
aI2718
aI5004
aI4060
aI1348
aI3145
aI8517
aI4935
aI6359
aI5701
aI5912
aI1070
aI9194
aI1581
aI3733
aI2485
aI6806
aI4029
aI7119
aI1962
aI8191
aI1620
aI5689
aI9023
aI4442
aI7476
aI5559
aI5201
aI10160
aI1733
aI4832
aI3958
aI6751
aI9177
aI1082
aI69
aI9540
aI1255
aI4145
aI1321
aI1917
aI3747
aI9926
aI1901
aI1086
aI1498
aI6882
aI5848
aI5638
aI7468
aI9106
aI1894
aI1130
aI1595
aI860
aI7103
aI1143
aI8342
aI3092
aI1799
aI7586
aI3769
aI6827
aI6554
aI9890
aI3390
aI6564
aI3885
aI701
aI9805
aI1200
aI654
aI83
aI9200
aI4619
aI4824
aI1203
aI755
aI926
aI9480
aI9771
aI6327
aI7719
aI4473
aI1838
aI5235
aI902
aI7814
aI1071
aI4874
aI9329
aI8113
aI5800
aI89
aI45
aI1398
aI4316
aI5186
aI8160
aI5548
aI1920
aI4197
aI10102
aI7509
aI8162
aI7700
aI7079
aI847
aI3783
aI5890
aI5707
aI1235
aI5814
aI1507
aI6502
aI2789
aI2722
aI1218
aI8011
aI2976
aI293
aI7828
aI5326
aI2064
aI9780
aI3781
aI7943
aI8255
aI6055
aI3378
aI4752
aI3246
aI1876
aI6279
aI6723
aI8248
aI9863
aI2088
aI1250
aI2403
aI1637
aI6070
aI1914
aI6170
aI8324
aI191
aI345
aI2118
aI1715
aI449
aI6612
aI3113
aI8430
aI7181
aI8441
aI8131
aI5250
aI5230
aI6586
aI6786
aI9254
aI2189
aI5061
aI2045
aI408
aI4734
aI4221
aI3788
aI9708
aI5383
aI6434
aI5265
aI9754
aI1386
aI178
aI6524
aI7083
aI5188
aI3061
aI8560
aI7158
aI7347
aI9796
aI4885
aI8505
aI2024
aI6455
aI3400
aI1705
aI1947
aI3070
aI1739
aI7122
aI6996
aI4612
aI9205
aI5102
aI3452
aI9627
aI10136
aI6915
aI7444
aI3079
aI5149
aI8830
aI1094
aI2329
aI3195
aI3478
aI3126
aI2185
aI196
aI4758
aI2247
aI5067
aI9641
aI8458
aI1641
aI2869
aI7619
aI7844
aI10211
aI4216
aI430
aI4437
aI4400
aI3171
aI5564
aI5607
aI1031
aI6533
aI340
aI3164
aI6456
aI2281
aI830
aI5122
aI6628
aI7033
aI3817
aI7590
aI4600
aI3004
aI5488
aI3407
aI9746
aI5590
aI5674
aI7191
aI3160
aI6740
aI3059
aI4778
aI107
aI4597
aI8755
aI1036
aI5740
aI2293
aI2268
aI7961
aI4279
aI9330
aI5624
aI1264
aI8048
aI9766
aI8628
aI8090
aI7624
aI3776
aI8819
aI1776
aI6267
aI4588
aI2444
aI3221
aI2508
aI7587
aI2916
aI9703
aI3637
aI600
aI2481
aI4660
aI4605
aI6601
aI9125
aI8202
aI5435
aI6134
aI6480
aI3277
aI10021
aI2915
aI1583
aI5563
aI3984
aI975
aI709
aI5586
aI7166
aI2685
aI6042
aI8470
aI533
aI7385
aI2000
aI8700
aI1974
aI3261
aI6863
aI6373
aI6118
aI2640
aI5730
aI3577
aI8507
aI5714
aI1035
aI6642
aI3150
aI3229
aI924
aI5318
aI7797
aI6896
aI6371
aI6098
aI1976
aI10201
aI8089
aI7748
aI10130
aI8963
aI2750
aI7712
aI7167
aI1056
aI10140
aI6905
aI10004
aI2408
aI1895
aI9764
aI6476
aI3540
aI3744
aI8740
aI2807
aI108
aI5423
aI9
aI6637
aI4687
aI2615
aI253
aI5351
aI2853
aI9217
aI4069
aI5339
aI3063
aI9032
aI10126
aI2234
aI9502
aI4762
aI9677
aI2119
aI5969
aI8368
aI6356
aI9456
aI1664
aI4952
aI5571
aI7835
aI8715
aI3969
aI1497
aI5249
aI8589
aI919
aI3574
aI2075
aI1216
aI8271
aI1440
aI690
aI7244
aI7962
aI621
aI10134
aI5967
aI1592
aI7707
aI6725
aI2495
aI8146
aI1977
aI373
aI3215
aI2350
aI4112
aI9193
aI4896
aI2894
aI5428
aI4229
aI4435
aI2492
aI10108
aI7577
aI7830
aI80
aI7031
aI4565
aI3884
aI6010
aI5033
aI2705
aI5977
aI1808
aI7947
aI6765
aI8329
aI1997
aI1197
aI8709
aI6967
aI4817
aI2302
aI4434
aI8626
aI2900
aI341
aI9028
aI1651
aI4966
aI119
aI6909
aI8649
aI4359
aI6217
aI656
aI7929
aI9315
aI3258
aI1396
aI2517
aI8435
aI4351
aI6214
a.